(dp1
S'output'
p2
S''
sS'layer'
p3
S'/Volumes/650Gb HD/web2py/web2py.app/Contents/Resources/applications/uc/views/default/usecases.html'
p4
sS'code'
p5
S"extends 'layout.html'\nresponse.write('\\n<h1>', escape=False)\nresponse.write(project.name)\nresponse.write('</h1>\\n\\n<ul>\\n', escape=False)\nfor uc in usecases:\n    response.write('\\n<li>', escape=False)\n    response.write(T('UC') + ' ' + uc.number)\n    response.write(' ', escape=False)\n    response.write(uc.name)\n    response.write('</li>\\n', escape=False)\n    pass\nresponse.write('\\n</ul>\\n', escape=False)"
p6
sS'snapshot'
p7
(dp8
S'exception'
p9
(dp10
S'__getslice__'
p11
S"<method-wrapper '__getslice__' of exceptions.SyntaxError object at 0xc5b21f0>"
p12
sS'text'
p13
S'"extends \'layout.html\'\\n"'
p14
sS'__str__'
p15
S"<method-wrapper '__str__' of exceptions.SyntaxError object at 0xc5b21f0>"
p16
sS'__reduce__'
p17
S'<built-in method __reduce__ of exceptions.SyntaxError object at 0xc5b21f0>'
p18
sS'__dict__'
p19
S'{}'
p20
sS'__init__'
p21
S"<method-wrapper '__init__' of exceptions.SyntaxError object at 0xc5b21f0>"
p22
sS'__setattr__'
p23
S"<method-wrapper '__setattr__' of exceptions.SyntaxError object at 0xc5b21f0>"
p24
sS'__reduce_ex__'
p25
S'<built-in method __reduce_ex__ of exceptions.SyntaxError object at 0xc5b21f0>'
p26
sS'__new__'
p27
S'<built-in method __new__ of type object at 0x23f9320>'
p28
sS'__class__'
p29
S"<type 'exceptions.SyntaxError'>"
p30
sS'filename'
p31
S"'/Volumes/650Gb HD/web2py/web2py.app/Contents/Resources/applications/uc/views/default/usecases.html'"
p32
sS'lineno'
p33
S'1'
sS'msg'
p34
S"'invalid syntax'"
p35
sS'__doc__'
p36
S"'Invalid syntax.'"
p37
sS'__getitem__'
p38
S"<method-wrapper '__getitem__' of exceptions.SyntaxError object at 0xc5b21f0>"
p39
sS'__setstate__'
p40
S'<built-in method __setstate__ of exceptions.SyntaxError object at 0xc5b21f0>'
p41
sS'__getattribute__'
p42
S"<method-wrapper '__getattribute__' of exceptions.SyntaxError object at 0xc5b21f0>"
p43
sS'print_file_and_line'
p44
S'None'
p45
sS'args'
p46
S'(\'invalid syntax\', (\'/Volumes/650Gb HD/web2py/web2py.app/Contents/Resources/applications/uc/views/default/usecases.html\', 1, 21, "extends \'layout.html\'\\n"))'
p47
sS'offset'
p48
S'21'
p49
sS'__delattr__'
p50
S"<method-wrapper '__delattr__' of exceptions.SyntaxError object at 0xc5b21f0>"
p51
sS'__repr__'
p52
S"<method-wrapper '__repr__' of exceptions.SyntaxError object at 0xc5b21f0>"
p53
sS'__hash__'
p54
S"<method-wrapper '__hash__' of exceptions.SyntaxError object at 0xc5b21f0>"
p55
ssS'evalue'
p56
S'invalid syntax (usecases.html, line 1)'
p57
sS'request'
p58
(dp59
S'function'
p60
S"'usecases'"
p61
sS'body'
p62
S'<cStringIO.StringO object at 0x1035c2c0>'
p63
sS'wsgi'
p64
S"<Storage {'start_response': <function <lambda> a...eflate', 'PATH_INFO': '/uc/default/usecases/1'}}>"
p65
sS'extension'
p66
S"'html'"
p67
sS'vars'
p68
S'<Storage {}>'
p69
sS'cid'
p70
S'None'
p71
sS'url'
p72
S'<gluon.html.XML object at 0x1035c330>'
p73
sS'raw_extension'
p74
S'None'
p75
sg46
S"['1']"
p76
sS'controller'
p77
S"'default'"
p78
sS'cookies'
p79
S"<SimpleCookie: __utma='96992031.364672225.129534...79' sessionid='8ac6b2c4407419651e81807c39ff405f'>"
p80
sS'application'
p81
S"'uc'"
p82
sS'ajax'
p83
S'False'
p84
sS'client'
p85
S"'127.0.0.1'"
p86
sS'env'
p87
S"<Storage {'wsgi_multithread': True, 'http_accept... '58076', 'path_info': '/uc/default/usecases/1'}>"
p88
sS'raw_args'
p89
S"'1'"
p90
sS'get_vars'
p91
S'<Storage {}>'
p92
sS'folder'
p93
S"'/Volumes/650Gb HD/web2py/web2py.app/Contents/Resources/applications/uc/'"
p94
sS'now'
p95
S'datetime.datetime(2011, 2, 1, 16, 53, 35, 969343)'
p96
sS'post_vars'
p97
S'<Storage {}>'
p98
ssS'frames'
p99
(lp100
(dp101
S'file'
p102
S'/Volumes/650Gb HD/web2py/web2py.app/Contents/Resources/gluon/restricted.py'
p103
sS'dump'
p104
(dp105
sS'lnum'
p106
I186
sS'lines'
p107
(dp108
sS'call'
p109
S'(code="extends \'layout.html\'\\nresponse.write(\'\\\\n<h1>\', e...   pass\\nresponse.write(\'\\\\n</ul>\\\\n\', escape=False)", environment={\'A\': <class \'gluon.html.A\'>, \'Auth\': <class \'gluon.tools.Auth\'>, \'B\': <class \'gluon.html.B\'>, \'BEAUTIFY\': <class \'gluon.html.BEAUTIFY\'>, \'BODY\': <class \'gluon.html.BODY\'>, \'BR\': <class \'gluon.html.BR\'>, \'CENTER\': <class \'gluon.html.CENTER\'>, \'CLEANUP\': <class \'gluon.validators.CLEANUP\'>, \'CODE\': <class \'gluon.html.CODE\'>, \'CRYPT\': <class \'gluon.validators.CRYPT\'>, ...}, layer=\'/Volumes/650Gb HD/web2py/web2py.app/Contents/Resources/applications/uc/views/default/usecases.html\')'
p110
sS'func'
p111
S'restricted'
p112
sa(dp113
g102
S'/Volumes/650Gb HD/web2py/web2py.app/Contents/Resources/gluon/restricted.py'
p114
sg104
(dp115
sg106
I173
sg107
(dp116
sg109
S'(code="extends \'layout.html\'\\nresponse.write(\'\\\\n<h1>\', e...   pass\\nresponse.write(\'\\\\n</ul>\\\\n\', escape=False)", layer=\'/Volumes/650Gb HD/web2py/web2py.app/Contents/Resources/applications/uc/views/default/usecases.html\')'
p117
sg111
S'compile2'
p118
sasS'pyver'
p119
S'Python 2.5.1: /Volumes/650Gb HD/web2py/web2py.app/Contents/MacOS/python'
p120
sS'session'
p121
(dp122
S'_formkey[project/None]'
p123
S"'420f13ce-717e-40a2-bf41-039e4a3cba53'"
p124
sS'_formkey[project/1]'
p125
S"'d49c6ac59c76b66e2a0ff40ebdc3a834'"
p126
sS'auth'
p127
S'None'
p128
ssS'etype'
p129
S"<type 'exceptions.SyntaxError'>"
p130
sS'date'
p131
S'Tue Feb  1 16:53:35 2011'
p132
sS'response'
p133
(dp134
S'status'
p135
S'200'
p136
sg62
S'<cStringIO.StringO object at 0x1176d360>'
p137
sg79
S"<SimpleCookie: session_id_uc='127.0.0.1-dfb3032e-0008-493a-8a6e-67b71739aced'>"
p138
sS'_vars'
p139
S"{'project': <Row {'name': 'Facturi', 'update_record': <funct...: 'Procesare si aprobare de facturi de facturi'}>, 'usecases': <gluon.dal.Rows object at 0x1035ceb0>}"
p140
sS'title'
p141
S"'uc'"
p142
sS'session_file'
p143
S"<open file '/Volumes/650Gb HD/web2py/web2py.app/...93a-8a6e-67b71739aced', mode 'rb+' at 0x1176a1d0>"
p144
sS'flash'
p145
S"''"
p146
sS'_custom_rollback'
p147
S'None'
p148
sS'session_id'
p149
S"'127.0.0.1-dfb3032e-0008-493a-8a6e-67b71739aced'"
p150
sS'headers'
p151
S"<Storage {'Expires': 'Tue, 01 Feb 2011 14:53:35 ...he, must-revalidate, post-check=0, pre-check=0'}>"
p152
sS'meta'
p153
S"<Storage {'keywords': 'web2py, python, framework... 'Web2py Enterprise Framework', 'author': 'you'}>"
p154
sS'session_filename'
p155
S"'/Volumes/650Gb HD/web2py/web2py.app/Contents/Res...ns/127.0.0.1-dfb3032e-0008-493a-8a6e-67b71739aced'"
p156
sS'postprocessing'
p157
S'[]'
p158
sS'menu'
p159
S"[(<lazyT 'Home'>, False, <gluon.html.XML object at 0x10360dd0>, []), (<lazyT 'This App'>, False, <gluon.html.XML object at 0x10360d90>, [(<lazyT 'Controller'>, False, <gluon.html.XML object at 0x10360d50>), (<lazyT 'View'>, False, <gluon.html.XML object at 0x10360ab0>), (<lazyT 'Layout'>, False, <gluon.html.XML object at 0x10360c30>), (<lazyT 'Stylesheet'>, False, <gluon.html.XML object at 0x10360b10>), (<lazyT 'DB Model'>, False, <gluon.html.XML object at 0x10360af0>), (<lazyT 'Menu Model'>, False, <gluon.html.XML object at 0x103602f0>), (<lazyT 'Database'>, False, <gluon.html.XML object at 0x10360270>), (<lazyT 'Errors'>, False, <gluon.html.XML object at 0x10360230>), (<lazyT 'About'>, False, <gluon.html.XML object at 0x10360050>)]), (<lazyT 'Resources'>, False, None, [(<lazyT 'Documentation'>, False, 'http://www.web2py.com/book', [(<lazyT 'Preface'>, False, 'http://www.web2py.com/book/default/chapter/00'), (<lazyT 'Introduction'>, False, 'http://www.web2py.com/book/default/chapter/01'), (<lazyT 'Python'>, False, 'http://www.web2py.com/book/default/chapter/02'), (<lazyT 'Overview'>, False, 'http://www.web2py.com/book/default/chapter/03'), (<lazyT 'The Core'>, False, 'http://www.web2py.com/book/default/chapter/04'), (<lazyT 'The Views'>, False, 'http://www.web2py.com/book/default/chapter/05'), (<lazyT 'Database'>, False, 'http://www.web2py.com/book/default/chapter/06'), (<lazyT 'Forms and Validators'>, False, 'http://www.web2py.com/book/default/chapter/07'), (<lazyT 'Access Control'>, False, 'http://www.web2py.com/book/default/chapter/08'), (<lazyT 'Services'>, False, 'http://www.web2py.com/book/default/chapter/09'), (<lazyT 'Ajax Recipes'>, False, 'http://www.web2py.com/book/default/chapter/10'), (<lazyT 'Deployment Recipes'>, False, 'http://www.web2py.com/book/default/chapter/11'), (<lazyT 'Other Recipes'>, False, 'http://www.web2py.com/book/default/chapter/12'), (<lazyT 'Buy this book'>, False, 'http://stores.lulu.com/web2py')]), (<lazyT 'Community'>, False, None, [(<lazyT 'Groups'>, False, 'http://www.web2py.com/examples/default/usergroups'), (<lazyT 'Twitter'>, False, 'http://twitter.com/web2py'), (<lazyT 'Live chat'>, False, 'http://mibbit.com/?channel=%23web2py&server=irc.mibbit.net'), (<lazyT 'User Voice'>, False, 'http://web2py.uservoice.com/')]), (<lazyT 'Web2py'>, False, 'http://www.web2py.com', [(<lazyT 'Download'>, False, 'http://www.web2py.com/examples/default/download'), (<lazyT 'Support'>, False, 'http://www.web2py.com/examples/default/support'), (<lazyT 'Quick Examples'>, False, 'http://web2py.com/examples/default/examples'), (<lazyT 'FAQ'>, False, 'http://web2py.com/AlterEgo'), (<lazyT 'Free Applications'>, False, 'http://web2py.com/appliances'), (<lazyT 'Plugins'>, False, 'http://web2py.com/plugins'), (<lazyT 'Recipes'>, False, 'http://web2pyslices.com/'), (<lazyT 'Demo'>, False, 'http://web2py.com/demo_admin'), (<lazyT 'Semantic'>, False, 'http://web2py.com/semantic'), (<lazyT 'Layouts'>, False, 'http://web2py.com/layouts'), (<lazyT 'Videos'>, False, 'http://www.web2py.com/examples/default/videos/')])])]"
p160
sS'_view_environment'
p161
S"{'A': <class 'gluon.html.A'>, 'Auth': <class 'gluon.tools.Auth'>, 'B': <class 'gluon.html.B'>, 'BEAUTIFY': <class 'gluon.html.BEAUTIFY'>, 'BODY': <class 'gluon.html.BODY'>, 'BR': <class 'gluon.html.BR'>, 'CENTER': <class 'gluon.html.CENTER'>, 'CLEANUP': <class 'gluon.validators.CLEANUP'>, 'CODE': <class 'gluon.html.CODE'>, 'CRYPT': <class 'gluon.validators.CRYPT'>, ...}"
p162
sS'subtitle'
p163
S"<lazyT 'customize me!'>"
p164
sS'session_id_name'
p165
S"'session_id_uc'"
p166
sS'_custom_commit'
p167
S'None'
p168
sS'_caller'
p169
S'<function <lambda> at 0xc57ef70>'
p170
sS'files'
p171
S'[]'
p172
sS'view'
p173
S"'default/usecases.html'"
p174
ssS'locals'
p175
(dp176
g3
S"'/Volumes/650Gb HD/web2py/web2py.app/Contents/Resources/applications/uc/views/default/usecases.html'"
p177
sg5
S'"extends \'layout.html\'\\nresponse.write(\'\\\\n<h1>\', e...   pass\\nresponse.write(\'\\\\n</ul>\\\\n\', escape=False)"'
p178
sssS'traceback'
p179
S'Traceback (most recent call last):\n  File "gluon/restricted.py", line 186, in restricted\n  File "gluon/restricted.py", line 173, in compile2\n  File "/Volumes/650Gb HD/web2py/web2py.app/Contents/Resources/applications/uc/views/default/usecases.html", line 1\n    extends \'layout.html\'\n                        ^\nSyntaxError: invalid syntax\n'
p180
s.