(dp1
S'output'
p2
S''
sS'layer'
p3
S'/Volumes/650Gb HD/web2py/web2py.app/Contents/Resources/applications/uc/views/default/var_add.html'
p4
sS'code'
p5
S'response.write(\'<!DOCTYPE html>\\n<html lang="\', escape=False)\nresponse.write(T.accepted_language or \'en\')\nresponse.write(\'" class="no-js"><!-- no-js need it for modernzr -->\\n  <head>\\n    \\n    <meta charset="utf-8" />\\t  \\t\\n    <!-- www.phpied.com/conditional-comments-block-downloads/ -->\\n    <!--[if IE]><![endif]-->    \\n    <!-- Always force latest IE rendering engine \\n\\t (even in intranet) & Chrome Frame \\n\\t Remove this if you use the .htaccess -->\\n    <meta http-equiv="X-UA-Compatible" content="IE=edge,chrome=1">\\n    \\n    <title>\', escape=False)\nresponse.write(response.title or request.application)\nresponse.write(\'</title>\\n    \\n    <!-- http://dev.w3.org/html5/markup/meta.name.html -->\\n    <meta name="application-name" content="\', escape=False)\nresponse.write(request.application)\nresponse.write(\'" />\\t\\n    \\n    <!-- Speaking of Google, don\\\'t forget to set your site up: \\n\\t http://google.com/webmasters -->\\n    <meta name="google-site-verification" content="" />\\n    \\n    <!--  Mobile Viewport Fix\\n\\t  j.mp/mobileviewport & davidbcalhoun.com/2010/viewport-metatag \\n\\t  device-width: Occupy full width of the screen in its current orientation\\n\\t  initial-scale = 1.0 retains dimensions instead of zooming out if page height > device height\\n\\t  maximum-scale = 1.0 retains dimensions instead of zooming in if page width < device width\\n      -->\\n    <meta name="viewport" content="width=device-width; initial-scale=1.0; maximum-scale=1.0;">\\n    \\n    <!-- Place favicon.ico and apple-touch-icon.png in the root of your domain and delete these references -->\\n    <link rel="shortcut icon" href="\', escape=False)\nresponse.write(URL(\'static\',\'favicon.ico\'))\nresponse.write(\'" type="image/x-icon">\\n    <link rel="apple-touch-icon" href="\', escape=False)\nresponse.write(URL(\'static\',\'favicon.png\'))\nresponse.write(\'">\\n\\n    <!-- For the less-enabled mobile browsers like Opera Mini -->\\n    <link rel="stylesheet" media="handheld" href="\', escape=False)\nresponse.write(URL(\'static\',\'css/handheld.css\'))\nresponse.write(\'">\\n    \\n    <!-- All JavaScript at the bottom, except for Modernizr which enables HTML5 elements & feature detects -->\\n    <script src="\', escape=False)\nresponse.write(URL(\'static\',\'js/modernizr-1.6.min.js\'))\nresponse.write(\'"></script>\\n    \\n    \', escape=False)\n#------  require CSS and JS files for this page (read info in base.css) ------\nresponse.write(\'\\n    \', escape=False)\nresponse.files.append(URL(\'static\',\'css/base.css\'))\nresponse.write(\'\\n    \', escape=False)\nresponse.files.append(URL(\'static\',\'css/superfish.css\'))\nresponse.write(\'\\n    \', escape=False)\nresponse.files.append(URL(\'static\',\'js/superfish.js\'))\nresponse.write(\'\\n    \', escape=False)\n#------ include web2py specific js code (jquery, calendar, form stuff) ------\nresponse.write(\'\\n    \', escape=False)\nresponse.files.insert(0,URL(\'static\',\'js/jquery.js\'))\nresponse.files.insert(1,URL(\'static\',\'css/calendar.css\'))\nresponse.files.insert(2,URL(\'static\',\'js/calendar.js\'))\nfor _item in response.meta or []:\n    response.write(\'\\n     <meta name="\', escape=False)\n    response.write(_item)\n    response.write(\'" content="\', escape=False)\n    response.write(response.meta[_item])\n    response.write(\'" />\', escape=False)\n    pass\nfor _k,_file in enumerate(response.files or []):\n    if _file in response.files[:_k]:\n        continue\n    _file0=_file.lower().split(\'?\')[0]\n    if _file0.endswith(\'.css\'):\n        response.write(\'\\n     <link href="\', escape=False)\n        response.write(_file)\n        response.write(\'" rel="stylesheet" type="text/css" />\', escape=False)\n    elif _file0.endswith(\'.js\'):\n        response.write(\'\\n     <script src="\', escape=False)\n        response.write(_file)\n        response.write(\'" type="text/javascript"></script>\', escape=False)\n        pass\n    pass\nresponse.write(\'\\n  \\n<script type="text/javascript"><!--\\nfunction popup(url) {\\n  newwindow=window.open(url,\\\'name\\\',\\\'height=400,width=600\\\');\\n  if (window.focus) newwindow.focus();\\n  return false;\\n}\\nfunction collapse(id) { jQuery(\\\'#\\\'+id).slideToggle(); }\\nfunction fade(id,value) { if(value>0) jQuery(\\\'#\\\'+id).hide().fadeIn(\\\'slow\\\'); else jQuery(\\\'#\\\'+id).show().fadeOut(\\\'slow\\\'); }\\nfunction ajax(u,s,t) {\\n    query = \\\'\\\';\\n    if (typeof s == "string") {\\n        d = jQuery(s).serialize();\\n        if(d){ query = d; }\\n    } else {\\n        pcs = [];\\n        for(i=0; i<s.length; i++) {\\n            q = jQuery("[name="+s[i]+"]").serialize();\\n            if(q){pcs.push(q);}\\n        }\\n        if (pcs.length>0){query = pcs.join("&");}\\n    }\\n    jQuery.ajax({type: "POST", url: u, data: query, success: function(msg) { if(t) { if(t==\\\':eval\\\') eval(msg); else jQuery("#" + t).html(msg); } } }); \\n}\\n\\nString.prototype.reverse = function () { return this.split(\\\'\\\').reverse().join(\\\'\\\');};\\nfunction web2py_ajax_init() {\\n  jQuery(\\\'.hidden\\\').hide();\\n  jQuery(\\\'.error\\\').hide().slideDown(\\\'slow\\\');\\n  jQuery(\\\'.flash\\\').click(function() { jQuery(this).fadeOut(\\\'slow\\\'); return false; });\\n  // jQuery(\\\'input[type=submit]\\\').click(function(){var t=jQuery(this);t.hide();t.after(\\\'<input class="submit_disabled" disabled="disabled" type="submit" name="\\\'+t.attr("name")+\\\'_dummy" value="\\\'+t.val()+\\\'">\\\')});\\n  jQuery(\\\'input.integer\\\').live(\\\'keyup\\\', function(){this.value=this.value.reverse().replace(/[^0-9\\\\-]|\\\\-(?=.)/g,\\\'\\\').reverse();});\\n  jQuery(\\\'input.double,input.decimal\\\').live(\\\'keyup\\\', function(){this.value=this.value.reverse().replace(/[^0-9\\\\-\\\\.]|[\\\\-](?=.)|[\\\\.](?=[0-9]*[\\\\.])/g,\\\'\\\').reverse();});\\n  jQuery("input[type=\\\'checkbox\\\'].delete").live(\\\'click\\\', function(){ if(this.checked) if(!confirm("\', escape=False)\nresponse.write(T(\'Sure you want to delete this object?\'))\nresponse.write(\'")) this.checked=false; });\\n  try {jQuery("input.date").live(\\\'focus\\\',function() {Calendar.setup({\\n     inputField:this, ifFormat:"\', escape=False)\nresponse.write(T(\'%Y-%m-%d\'))\nresponse.write(\'", showsTime:false\\n  }); }); } catch(e) {};\\n  try { jQuery("input.datetime").live(\\\'focus\\\', function() {Calendar.setup({\\n     inputField:this, ifFormat:"\', escape=False)\nresponse.write(T(\'%Y-%m-%d %H:%M:%S\'))\nresponse.write(\'", showsTime: true,timeFormat: "24"\\n  }); }); } catch(e) {};\\n\\n  jQuery("input.time").live(\\\'focus\\\', function() { var el = jQuery(this); \\n          if (!el.hasClass(\\\'hasTimeEntry\\\')) try { el.timeEntry(); } catch(e) {}; \\n  });\\n};\\n\\njQuery(document).ready(function() {   \\n   var flash = jQuery(\\\'.flash\\\');\\n   flash.hide();\\n   if(flash.html()) flash.slideDown();\\n   web2py_ajax_init();\\n});\\nfunction web2py_trap_form(action,target) {\\n   jQuery(\\\'#\\\'+target+\\\' form\\\').each(function(i){\\n      var form=jQuery(this);\\n      if(!form.hasClass(\\\'no_trap\\\'))\\n        form.submit(function(obj){\\n         jQuery(\\\'.flash\\\').hide().html(\\\'\\\');\\n         web2py_ajax_page(\\\'post\\\',action,form.serialize(),target);\\n         return false;\\n      });\\n   });\\n}\\nfunction web2py_ajax_page(method,action,data,target) {\\n  jQuery.ajax({\\\'type\\\':method,\\\'url\\\':action,\\\'data\\\':data,\\n    \\\'beforeSend\\\':function(xhr) {\\n      xhr.setRequestHeader(\\\'web2py-component-location\\\',document.location);\\n      xhr.setRequestHeader(\\\'web2py-component-element\\\',target);},\\n    \\\'complete\\\':function(xhr,text){\\n      var html=xhr.responseText;\\n      var content=xhr.getResponseHeader(\\\'web2py-component-content\\\'); \\n      var command=xhr.getResponseHeader(\\\'web2py-component-command\\\');\\n      var flash=xhr.getResponseHeader(\\\'web2py-component-flash\\\');\\n      var t = jQuery(\\\'#\\\'+target);\\n      if(content==\\\'prepend\\\') t.prepend(html); \\n      else if(content==\\\'append\\\') t.append(html);\\n      else if(content!=\\\'hide\\\') t.html(html);  \\n      web2py_trap_form(action,target);\\n      web2py_ajax_init();      \\n      if(command) eval(command);\\n      if(flash) jQuery(\\\'.flash\\\').html(flash).slideDown();\\n      }\\n    });\\n}\\nfunction web2py_component(action,target) {\\n  jQuery(document).ready(function(){ web2py_ajax_page(\\\'get\\\',action,null,target); });\\n}\\nfunction web2py_comet(url,onmessage,onopen,onclose) {\\n  if ("WebSocket" in window) {\\n    var ws = new WebSocket(url);\\n    ws.onopen = onopen?onopen:(function(){});\\n    ws.onmessage = onmessage;\\n    ws.onclose = onclose?onclose:(function(){});\\n    return true; // supported\\n  } else return false; // not supported\\n}\\n//--></script>\\n\', escape=False)\nresponse.write(\'\\n\\n    \', escape=False)\n#using sidebars need to know what sidebar you want to use\n#prior of using it, because of static width size of content, you can use\n#left_sidebar, right_sidebar, both or none (False left and right)\nleft_sidebar_enabled = globals().get(\'left_sidebar_enabled\',False)\nright_sidebar_enabled = globals().get(\'right_sidebar_enabled\',False)\nif left_sidebar_enabled and right_sidebar_enabled: width_content=\'63%\'\nelif left_sidebar_enabled != right_sidebar_enabled: width_content=\'740px\'\nelse: width_content=\'100%\'\nif left_sidebar_enabled: left_sidebar_style = \'style="display: block;"\'\nelse: left_sidebar_style = \'style="display: none;"\'\nif right_sidebar_enabled: right_sidebar_style = \'style="display: block;"\'\nelse: right_sidebar_style = \'style="display: none;"\'\nstyle_content = \'style="width: %s"\' % width_content\nresponse.write(\'\\n  </head>\\n  \\n  <!-- paulirish.com/2008/conditional-stylesheets-vs-css-hacks-answer-neither/ -->\\t\\n  <!--[if lt IE 7 ]> <body class="ie6"> <![endif]-->\\n  <!--[if IE 7 ]>    <body class="ie7"> <![endif]-->\\n  <!--[if IE 8 ]>    <body class="ie8"> <![endif]-->\\n  <!--[if IE 9 ]>    <body class="ie9"> <![endif]-->\\n  <!--[if (gt IE 9)|!(IE)]><!--> <body> <!--<![endif]-->\\n    \\n    <div class="flash">\', escape=False)\nresponse.write(response.flash or \'\')\nresponse.write(\'</div> <!-- notification div -->\\n    \\n    <div id="container">\\t      \\t\\t      \\t\\n      \\n      <div id="wrapper">\\t\\t\\n\\t\\n\\t<div id="header"> <!-- header and login nav -->\\n\\t  \', escape=False)\nresponse.write(\' <!-- this is default header -->\\n\\t  \', escape=False)\ntry:\n    response.write(auth.navbar(action=URL(\'default\',\'user\')))\nexcept:pass\nresponse.write(\'\\t\\t          \\n\\t  <div id="logo"><!-- put your logo here --></div>\\n\\t  <div style="clear: both;"></div><!-- Clear the divs -->\\n\\t  \', escape=False)\nresponse.write(\'\\t\\t\\t\\t  \\t\\t\\t\\t\\t  \\n\\t</div><!-- header  -->\\n\\t\\n\\t<div id="statusbar"><!-- statusbar is menu zone -->\\n\\t  \', escape=False)\nresponse.write(\' <!-- this is default statusbar -->\\n\\t  \', escape=False)\n#------ superfish menu ------\nresponse.write(\'\\n\\t  \', escape=False)\nresponse.write(MENU(response.menu,_class=\'sf-menu\'))\nresponse.write(\'\\n\\t  <script type="text/javascript">\\n\\t    jQuery(document).ready(function(){\\n\\t    jQuery(\\\'ul.sf-menu\\\').superfish();});\\n\\t  </script>\\n\\t  <div style="clear: both;"></div><!-- Clear the divs -->\\t\\n\\t  \', escape=False)\nresponse.write(\'\\t\\t\\t\\t\\n\\t</div><!-- statusbar -->\\n\\t\\n\\t<div id="page"> <!-- Here my central body -->\\t  \\n\\n\\t  \', escape=False)\nif left_sidebar_enabled:\n    response.write(\'\\n          <div id="left_sidebar" \', escape=False)\n    response.write(XML(left_sidebar_style))\n    response.write(\' >\\n            <div style="padding: 4px;">\\n\\t      \', escape=False)\n    response.write(\'Content Left Sidebar\', escape=False)\n    response.write(\'\\t\\t  \\n            </div>\\n          </div><!-- left_sidebar -->\\n\\t  \', escape=False)\n    pass\nresponse.write(\'\\n\\n\\t  <!-- content -->\\n\\t  <div id="content" \', escape=False)\nresponse.write(XML(style_content))\nresponse.write(\' >\\n\\t    \', escape=False)\nresponse.write(\'\\n\\n<h1>\', escape=False)\nresponse.write(T(\'UC\') + \' \' + str(uc.number))\nresponse.write(\' \', escape=False)\nresponse.write(uc.name)\nresponse.write(\'</h1>\\n\\n\', escape=False)\nresponse.write(form)\nresponse.write(\'\\n\\n\', escape=False)\nresponse.write(\'\\t\\n\\t  </div>\\n\\t  <!-- content -->\\n\\n\\t  \', escape=False)\nif right_sidebar_enabled:\n    response.write(\'\\n          <div id="right_sidebar" \', escape=False)\n    response.write(XML(right_sidebar_style))\n    response.write(\' >\\n            <div style="padding: 4px;">\\n              \', escape=False)\n    response.write(\'Content Right Sidebar\', escape=False)\n    response.write(\'\\n            </div>\\n\\t  </div><!-- right_sidebar -->\\n          \', escape=False)\n    pass\nresponse.write(\'\\n\\n\\n\\t  <div style="clear: both;"></div><!-- Clear the divs -->\\n\\t  \\n\\t</div><!-- page -->\\t\\t\\t\\t\\t\\t\\t\\n\\t\\n\\t<div id="footer">\\n\\t  \', escape=False)\nresponse.write(\' <!-- this is default footer -->\\n\\t  <a href="http://www.web2py.com/" style="float: left; padding-right: 6px;">\\n\\t    <img src="\', escape=False)\nresponse.write(URL(\'static\',\'images/poweredby.png\'))\nresponse.write(\'"/>\\n\\t  </a>\\n\\t  \', escape=False)\nresponse.write(T(\'Copyright\'))\nresponse.write(\' &#169; 2010\\t\\t\\t\\t\\n\\t  <div style="clear: both;"></div><!-- Clear the divs -->\\n\\t  \', escape=False)\nresponse.write(\'\\n\\n\\t</div><!-- footer -->\\t\\t\\t\\n      </div><!-- wrapper -->\\n    </div><!-- container -->\\t\\t\\n    \\n    <!--[if lt IE 7 ]>\\n\\t<script src="\', escape=False)\nresponse.write(URL(\'static\',\'js/dd_belatedpng.js\'))\nresponse.write(\'"></script>\\n\\t<script> DD_belatedPNG.fix(\\\'img, .png_bg\\\'); //fix any <img> or .png_bg background-images </script>\\n\\t<![endif]-->\\n    \\n    <!-- asynchronous google analytics: mathiasbynens.be/notes/async-analytics-snippet \\n\\t change the UA-XXXXX-X to be your site\\\'s ID -->\\n    <!--   \\n\\t   <script>\\n\\t     var _gaq = [[\\\'_setAccount\\\', \\\'UA-XXXXX-X\\\'], [\\\'_trackPageview\\\']];\\n\\t     (function(d, t) {\\n\\t     var g = d.createElement(t),\\n\\t     s = d.getElementsByTagName(t)[0];\\n\\t     g.async = true;\\n\\t     g.src = \\\'//www.google-analytics.com/ga.js\\\';\\n\\t     s.parentNode.insertBefore(g, s);\\n\\t     })(document, \\\'script\\\');\\n\\t   </script>\\n\\t   -->    \\n  </body>\\n</html>\\n\', escape=False)'
p6
sS'snapshot'
p7
(dp8
S'exception'
p9
(dp10
S'__hash__'
p11
S"<method-wrapper '__hash__' of exceptions.NameError object at 0x1170c738>"
p12
sS'__setattr__'
p13
S"<method-wrapper '__setattr__' of exceptions.NameError object at 0x1170c738>"
p14
sS'__reduce_ex__'
p15
S'<built-in method __reduce_ex__ of exceptions.NameError object at 0x1170c738>'
p16
sS'__getslice__'
p17
S"<method-wrapper '__getslice__' of exceptions.NameError object at 0x1170c738>"
p18
sS'__getitem__'
p19
S"<method-wrapper '__getitem__' of exceptions.NameError object at 0x1170c738>"
p20
sS'__setstate__'
p21
S'<built-in method __setstate__ of exceptions.NameError object at 0x1170c738>'
p22
sS'__reduce__'
p23
S'<built-in method __reduce__ of exceptions.NameError object at 0x1170c738>'
p24
sS'__str__'
p25
S"<method-wrapper '__str__' of exceptions.NameError object at 0x1170c738>"
p26
sS'args'
p27
S'("name \'uc\' is not defined",)'
p28
sS'__getattribute__'
p29
S"<method-wrapper '__getattribute__' of exceptions.NameError object at 0x1170c738>"
p30
sS'__class__'
p31
S"<type 'exceptions.NameError'>"
p32
sS'__delattr__'
p33
S"<method-wrapper '__delattr__' of exceptions.NameError object at 0x1170c738>"
p34
sS'__repr__'
p35
S"<method-wrapper '__repr__' of exceptions.NameError object at 0x1170c738>"
p36
sS'__dict__'
p37
S'{}'
p38
sS'__doc__'
p39
S"'Name not found globally.'"
p40
sS'__init__'
p41
S"<method-wrapper '__init__' of exceptions.NameError object at 0x1170c738>"
p42
sS'__new__'
p43
S'<built-in method __new__ of type object at 0x23f9640>'
p44
ssS'evalue'
p45
S"name 'uc' is not defined"
p46
sS'request'
p47
(dp48
S'function'
p49
S"'var_add'"
p50
sS'body'
p51
S'<cStringIO.StringO object at 0x11699d80>'
p52
sS'wsgi'
p53
S"<Storage {'start_response': <function <lambda> a...deflate', 'PATH_INFO': '/uc/default/var_add/1'}}>"
p54
sS'extension'
p55
S"'html'"
p56
sS'vars'
p57
S'<Storage {}>'
p58
sS'cid'
p59
S'None'
p60
sS'url'
p61
S'<gluon.html.XML object at 0x11699d30>'
p62
sS'raw_extension'
p63
S'None'
p64
sg27
S"['1']"
p65
sS'controller'
p66
S"'default'"
p67
sS'cookies'
p68
S"<SimpleCookie: __utma='96992031.364672225.129534...79' sessionid='8ac6b2c4407419651e81807c39ff405f'>"
p69
sS'application'
p70
S"'uc'"
p71
sS'ajax'
p72
S'False'
p73
sS'client'
p74
S"'127.0.0.1'"
p75
sS'env'
p76
S"<Storage {'wsgi_multithread': True, 'http_accept...: '58368', 'path_info': '/uc/default/var_add/1'}>"
p77
sS'raw_args'
p78
S"'1'"
p79
sS'get_vars'
p80
S'<Storage {}>'
p81
sS'folder'
p82
S"'/Volumes/650Gb HD/web2py/web2py.app/Contents/Resources/applications/uc/'"
p83
sS'now'
p84
S'datetime.datetime(2011, 2, 1, 17, 32, 26, 637277)'
p85
sS'post_vars'
p86
S'<Storage {}>'
p87
ssS'frames'
p88
(lp89
(dp90
S'file'
p91
S'/Volumes/650Gb HD/web2py/web2py.app/Contents/Resources/gluon/restricted.py'
p92
sS'dump'
p93
(dp94
sS'lnum'
p95
I188
sS'lines'
p96
(dp97
sS'call'
p98
S'(code=\'response.write(\\\'<!DOCTYPE html>\\\\n<html lang="\\\', ...t   -->    \\\\n  </body>\\\\n</html>\\\\n\\\', escape=False)\', environment={\'A\': <class \'gluon.html.A\'>, \'Auth\': <class \'gluon.tools.Auth\'>, \'B\': <class \'gluon.html.B\'>, \'BEAUTIFY\': <class \'gluon.html.BEAUTIFY\'>, \'BODY\': <class \'gluon.html.BODY\'>, \'BR\': <class \'gluon.html.BR\'>, \'CENTER\': <class \'gluon.html.CENTER\'>, \'CLEANUP\': <class \'gluon.validators.CLEANUP\'>, \'CODE\': <class \'gluon.html.CODE\'>, \'CRYPT\': <class \'gluon.validators.CRYPT\'>, ...}, layer=\'/Volumes/650Gb HD/web2py/web2py.app/Contents/Resources/applications/uc/views/default/var_add.html\')'
p99
sS'func'
p100
S'restricted'
p101
sa(dp102
g91
S'/Volumes/650Gb HD/web2py/web2py.app/Contents/Resources/applications/uc/views/default/var_add.html'
p103
sg93
(dp104
sg95
I97
sg96
(dp105
I96
S"response.write('\\n\\n<h1>', escape=False)"
p106
sI97
S"response.write(T('UC') + ' ' + str(uc.number))"
p107
sI98
S"response.write(' ', escape=False)"
p108
sI99
S'response.write(uc.name)'
p109
sI100
S"response.write('</h1>\\n\\n', escape=False)"
p110
sI101
S'response.write(form)'
p111
sI102
S"response.write('\\n\\n', escape=False)"
p112
sI103
S"response.write('\\t\\n\\t  </div>\\n\\t  <!-- content -->\\n\\n\\t  ', escape=False)"
p113
sI104
S'if right_sidebar_enabled:'
p114
sI105
S'    response.write(\'\\n          <div id="right_sidebar" \', escape=False)'
p115
sI106
S'    response.write(XML(right_sidebar_style))'
p116
sI107
S'    response.write(\' >\\n            <div style="padding: 4px;">\\n              \', escape=False)'
p117
sI88
S'    response.write(XML(left_sidebar_style))'
p118
sI89
S'    response.write(\' >\\n            <div style="padding: 4px;">\\n\\t      \', escape=False)'
p119
sI90
S"    response.write('Content Left Sidebar', escape=False)"
p120
sI91
S"    response.write('\\t\\t  \\n            </div>\\n          </div><!-- left_sidebar -->\\n\\t  ', escape=False)"
p121
sI92
S'    pass'
p122
sI93
S'response.write(\'\\n\\n\\t  <!-- content -->\\n\\t  <div id="content" \', escape=False)'
p123
sI94
S'response.write(XML(style_content))'
p124
sI95
S"response.write(' >\\n\\t    ', escape=False)"
p125
ssg98
S'()'
p126
sg100
S'<module>'
p127
sasS'pyver'
p128
S'Python 2.5.1: /Volumes/650Gb HD/web2py/web2py.app/Contents/MacOS/python'
p129
sS'session'
p130
(dp131
S'flash'
p132
S'None'
p133
sS'_formkey[usecase/1]'
p134
S"'0b3529b19927b6566a8313592a18e45b'"
p135
sS'_formkey[variation/None]'
p136
S"'877bfb91-e6c8-49dd-bdc7-416ba439e45d'"
p137
sS'auth'
p138
S'None'
p139
sS'_formkey[usecase/None]'
p140
S"'010c08f6-d98b-47c6-b3d7-fc488a2a7b96'"
p141
sS'_formkey[project/None]'
p142
S"'420f13ce-717e-40a2-bf41-039e4a3cba53'"
p143
sS'_formkey[project/1]'
p144
S"'d49c6ac59c76b66e2a0ff40ebdc3a834'"
p145
ssS'etype'
p146
S"<type 'exceptions.NameError'>"
p147
sS'date'
p148
S'Tue Feb  1 17:32:26 2011'
p149
sS'response'
p150
(dp151
S'status'
p152
S'200'
p153
sg51
S'<cStringIO.StringO object at 0x1176d200>'
p154
sg68
S"<SimpleCookie: session_id_uc='127.0.0.1-dfb3032e-0008-493a-8a6e-67b71739aced'>"
p155
sS'_vars'
p156
S"{'form': <gluon.sqlhtml.SQLFORM object at 0x116a3190>}"
p157
sS'title'
p158
S"'uc'"
p159
sS'session_file'
p160
S"<open file '/Volumes/650Gb HD/web2py/web2py.app/...493a-8a6e-67b71739aced', mode 'rb+' at 0xc5c6578>"
p161
sS'flash'
p162
S"''"
p163
sS'_custom_rollback'
p164
S'None'
p165
sS'session_id'
p166
S"'127.0.0.1-dfb3032e-0008-493a-8a6e-67b71739aced'"
p167
sS'headers'
p168
S"<Storage {'Expires': 'Tue, 01 Feb 2011 15:32:26 ...he, must-revalidate, post-check=0, pre-check=0'}>"
p169
sS'meta'
p170
S"<Storage {'keywords': 'web2py, python, framework... 'Web2py Enterprise Framework', 'author': 'you'}>"
p171
sS'session_filename'
p172
S"'/Volumes/650Gb HD/web2py/web2py.app/Contents/Res...ns/127.0.0.1-dfb3032e-0008-493a-8a6e-67b71739aced'"
p173
sS'postprocessing'
p174
S'[]'
p175
sS'menu'
p176
S"[(<lazyT 'Home'>, False, <gluon.html.XML object at 0x1168fb90>, []), (<lazyT 'This App'>, False, <gluon.html.XML object at 0x1168fbf0>, [(<lazyT 'Controller'>, False, <gluon.html.XML object at 0x1168fc50>), (<lazyT 'View'>, False, <gluon.html.XML object at 0x1168fcb0>), (<lazyT 'Layout'>, False, <gluon.html.XML object at 0x1168fcf0>), (<lazyT 'Stylesheet'>, False, <gluon.html.XML object at 0x1168fd30>), (<lazyT 'DB Model'>, False, <gluon.html.XML object at 0x1168fd70>), (<lazyT 'Menu Model'>, False, <gluon.html.XML object at 0x1168fdd0>), (<lazyT 'Database'>, False, <gluon.html.XML object at 0x1168fdf0>), (<lazyT 'Errors'>, False, <gluon.html.XML object at 0x1168fe30>), (<lazyT 'About'>, False, <gluon.html.XML object at 0x1168fe90>)]), (<lazyT 'Resources'>, False, None, [(<lazyT 'Documentation'>, False, 'http://www.web2py.com/book', [(<lazyT 'Preface'>, False, 'http://www.web2py.com/book/default/chapter/00'), (<lazyT 'Introduction'>, False, 'http://www.web2py.com/book/default/chapter/01'), (<lazyT 'Python'>, False, 'http://www.web2py.com/book/default/chapter/02'), (<lazyT 'Overview'>, False, 'http://www.web2py.com/book/default/chapter/03'), (<lazyT 'The Core'>, False, 'http://www.web2py.com/book/default/chapter/04'), (<lazyT 'The Views'>, False, 'http://www.web2py.com/book/default/chapter/05'), (<lazyT 'Database'>, False, 'http://www.web2py.com/book/default/chapter/06'), (<lazyT 'Forms and Validators'>, False, 'http://www.web2py.com/book/default/chapter/07'), (<lazyT 'Access Control'>, False, 'http://www.web2py.com/book/default/chapter/08'), (<lazyT 'Services'>, False, 'http://www.web2py.com/book/default/chapter/09'), (<lazyT 'Ajax Recipes'>, False, 'http://www.web2py.com/book/default/chapter/10'), (<lazyT 'Deployment Recipes'>, False, 'http://www.web2py.com/book/default/chapter/11'), (<lazyT 'Other Recipes'>, False, 'http://www.web2py.com/book/default/chapter/12'), (<lazyT 'Buy this book'>, False, 'http://stores.lulu.com/web2py')]), (<lazyT 'Community'>, False, None, [(<lazyT 'Groups'>, False, 'http://www.web2py.com/examples/default/usergroups'), (<lazyT 'Twitter'>, False, 'http://twitter.com/web2py'), (<lazyT 'Live chat'>, False, 'http://mibbit.com/?channel=%23web2py&server=irc.mibbit.net'), (<lazyT 'User Voice'>, False, 'http://web2py.uservoice.com/')]), (<lazyT 'Web2py'>, False, 'http://www.web2py.com', [(<lazyT 'Download'>, False, 'http://www.web2py.com/examples/default/download'), (<lazyT 'Support'>, False, 'http://www.web2py.com/examples/default/support'), (<lazyT 'Quick Examples'>, False, 'http://web2py.com/examples/default/examples'), (<lazyT 'FAQ'>, False, 'http://web2py.com/AlterEgo'), (<lazyT 'Free Applications'>, False, 'http://web2py.com/appliances'), (<lazyT 'Plugins'>, False, 'http://web2py.com/plugins'), (<lazyT 'Recipes'>, False, 'http://web2pyslices.com/'), (<lazyT 'Demo'>, False, 'http://web2py.com/demo_admin'), (<lazyT 'Semantic'>, False, 'http://web2py.com/semantic'), (<lazyT 'Layouts'>, False, 'http://web2py.com/layouts'), (<lazyT 'Videos'>, False, 'http://www.web2py.com/examples/default/videos/')])])]"
p177
sS'_view_environment'
p178
S"{'A': <class 'gluon.html.A'>, 'Auth': <class 'gluon.tools.Auth'>, 'B': <class 'gluon.html.B'>, 'BEAUTIFY': <class 'gluon.html.BEAUTIFY'>, 'BODY': <class 'gluon.html.BODY'>, 'BR': <class 'gluon.html.BR'>, 'CENTER': <class 'gluon.html.CENTER'>, 'CLEANUP': <class 'gluon.validators.CLEANUP'>, 'CODE': <class 'gluon.html.CODE'>, 'CRYPT': <class 'gluon.validators.CRYPT'>, ...}"
p179
sS'subtitle'
p180
S"<lazyT 'customize me!'>"
p181
sS'session_id_name'
p182
S"'session_id_uc'"
p183
sS'_custom_commit'
p184
S'None'
p185
sS'_caller'
p186
S'<function <lambda> at 0x24408b0>'
p187
sS'files'
p188
S'[<gluon.html.XML object at 0x116a3930>, <gluon.html.XML object at 0x116a38f0>, <gluon.html.XML object at 0x116a3f90>, <gluon.html.XML object at 0x1168ff70>, <gluon.html.XML object at 0x116a38b0>, <gluon.html.XML object at 0x116a3910>]'
p189
sS'view'
p190
S"'default/var_add.html'"
p191
ssS'locals'
p192
(dp193
S'Service'
p194
S"<class 'gluon.tools.Service'>"
p195
sS'OBJECT'
p196
S"<class 'gluon.html.OBJECT'>"
p197
sS'_file'
p198
S'<gluon.html.XML object at 0x116a3910>'
p199
sS'SQLDB'
p200
S"<class 'gluon.dal.DAL'>"
p201
sg130
S"<Storage {'_formkey[usecase/None]': '010c08f6-d9...fb91-e6c8-49dd-bdc7-416ba439e45d', 'auth': None}>"
p202
sS'LINK'
p203
S"<class 'gluon.html.LINK'>"
p204
sS'BR'
p205
S"<class 'gluon.html.BR'>"
p206
sS'local_import'
p207
S'<function <lambda> at 0x117a5db0>'
p208
sS'OPTGROUP'
p209
S"<class 'gluon.html.OPTGROUP'>"
p210
sS'PRE'
p211
S"<class 'gluon.html.PRE'>"
p212
sS'IS_INT_IN_RANGE'
p213
S"<class 'gluon.validators.IS_INT_IN_RANGE'>"
p214
sS'left_sidebar_enabled'
p215
g73
sS'IS_LOWER'
p216
S"<class 'gluon.validators.IS_LOWER'>"
p217
sS'IS_STRONG'
p218
S"<class 'gluon.validators.IS_STRONG'>"
p219
sS'Recaptcha'
p220
S"<class 'gluon.tools.Recaptcha'>"
p221
sS'cache'
p222
S'<gluon.cache.Cache object at 0x244ccd0>'
p223
sS'IS_IN_DB'
p224
S"<class 'gluon.validators.IS_IN_DB'>"
p225
sS'TAG'
p226
S'<gluon.html.__TAG__ object at 0xc4c2350>'
p227
sS'_k'
p228
S'5'
sS'SQLField'
p229
S"<class 'gluon.dal.Field'>"
p230
sS'mail'
p231
S'<gluon.tools.Mail object at 0x244ced0>'
p232
sS'BODY'
p233
S"<class 'gluon.html.BODY'>"
p234
sS'IS_DATE_IN_RANGE'
p235
S"<class 'gluon.validators.IS_DATE_IN_RANGE'>"
p236
sS'TH'
p237
S"<class 'gluon.html.TH'>"
p238
sS'URL'
p239
S'<function _URL at 0x117a5570>'
p240
sS'db'
p241
S"<DAL {'auth_permission': <Table {'ALL': <gluon.d...x116bd230>}>, '_migrate': True, '_pool_size': 0}>"
p242
sS'auth'
p243
S'<gluon.tools.Auth object at 0x244cef0>'
p244
sS'P'
S"<class 'gluon.html.P'>"
p245
sS'TFOOT'
p246
S"<class 'gluon.html.TFOOT'>"
p247
sS'XHTML'
p248
S"<class 'gluon.html.XHTML'>"
p249
sS'ON'
p250
S'True'
p251
sS'OL'
p252
S"<class 'gluon.html.OL'>"
p253
sS'TEXTAREA'
p254
S"<class 'gluon.html.TEXTAREA'>"
p255
sS'MENU'
p256
S"<class 'gluon.html.MENU'>"
p257
sS'_file0'
p258
S"'/uc/static/js/superfish.js'"
p259
sS'LOAD'
p260
S'<gluon.compileapp.LoadFactory object at 0x244ca90>'
p261
sS'CODE'
p262
S"<class 'gluon.html.CODE'>"
p263
sS'HTTP'
p264
S"<class 'gluon.http.HTTP'>"
p265
sS'HR'
p266
S"<class 'gluon.html.HR'>"
p267
sS'IS_DATETIME'
p268
S"<class 'gluon.validators.IS_DATETIME'>"
p269
sS'HEAD'
p270
S"<class 'gluon.html.HEAD'>"
p271
sS'LABEL'
p272
S"<class 'gluon.html.LABEL'>"
p273
sS'CLEANUP'
p274
S"<class 'gluon.validators.CLEANUP'>"
p275
sS'plugins'
p276
S'<gluon.tools.PluginManager object at 0x13122170>'
p277
sS'SELECT'
p278
S"<class 'gluon.html.SELECT'>"
p279
sS'CENTER'
p280
S"<class 'gluon.html.CENTER'>"
p281
sS'left_sidebar_style'
p282
S'\'style="display: none;"\''
p283
sS'Crud'
p284
S"<class 'gluon.tools.Crud'>"
p285
sS'Auth'
p286
S"<class 'gluon.tools.Auth'>"
p287
sS'__builtins__'
p288
S"{'ArithmeticError': <type 'exceptions.ArithmeticError'>, 'AssertionError': <type 'exceptions.AssertionError'>, 'AttributeError': <type 'exceptions.AttributeError'>, 'BaseException': <type 'exceptions.BaseException'>, 'DeprecationWarning': <type 'exceptions.DeprecationWarning'>, 'EOFError': <type 'exceptions.EOFError'>, 'Ellipsis': Ellipsis, 'EnvironmentError': <type 'exceptions.EnvironmentError'>, 'Exception': <type 'exceptions.Exception'>, 'False': False, ...}"
p289
sS'IS_LIST_OF'
p290
S"<class 'gluon.validators.IS_LIST_OF'>"
p291
sS'SQLFORM'
p292
S"<class 'gluon.sqlhtml.SQLFORM'>"
p293
sS'_item'
p294
S"'author'"
p295
sS'EM'
p296
S"<class 'gluon.html.EM'>"
p297
sS'redirect'
p298
S'<function redirect at 0xc4364b0>'
p299
sS'FIELDSET'
p300
S"<class 'gluon.html.FIELDSET'>"
p301
sS'IS_EQUAL_TO'
p302
S"<class 'gluon.validators.IS_EQUAL_TO'>"
p303
sS'embed64'
p304
S'<function embed64 at 0xc4bbd30>'
p305
sS'INPUT'
p306
S"<class 'gluon.html.INPUT'>"
p307
sS'EMBED'
p308
S"<class 'gluon.html.EMBED'>"
p309
sS'FORM'
p310
S"<class 'gluon.html.FORM'>"
p311
sS'width_content'
p312
S"'100%'"
p313
sS'H2'
p314
S"<class 'gluon.html.H2'>"
p315
sS'H3'
p316
S"<class 'gluon.html.H3'>"
p317
sS'H1'
p318
S"<class 'gluon.html.H1'>"
p319
sS'H6'
p320
S"<class 'gluon.html.H6'>"
p321
sS'H4'
p322
S"<class 'gluon.html.H4'>"
p323
sS'H5'
p324
S"<class 'gluon.html.H5'>"
p325
sS'UL'
p326
S"<class 'gluon.html.UL'>"
p327
sS'IS_UPPER'
p328
S"<class 'gluon.validators.IS_UPPER'>"
p329
sS'xmlescape'
p330
S'<function xmlescape at 0xc4bb570>'
p331
sS'IS_TIME'
p332
S"<class 'gluon.validators.IS_TIME'>"
p333
sS'OPTION'
p334
S"<class 'gluon.html.OPTION'>"
p335
sS'TITLE'
p336
S"<class 'gluon.html.TITLE'>"
p337
sS'CRYPT'
p338
S"<class 'gluon.validators.CRYPT'>"
p339
sS'IS_EMPTY_OR'
p340
S"<class 'gluon.validators.IS_EMPTY_OR'>"
p341
sS'MARKMIN'
p342
S"<class 'gluon.html.MARKMIN'>"
p343
sS'service'
p344
S'<gluon.tools.Service object at 0x116bd050>'
p345
sS'SCRIPT'
p346
S"<class 'gluon.html.SCRIPT'>"
p347
sS'geocode'
p348
S'<function geocode at 0xc57e5b0>'
p349
sS'TABLE'
p350
S"<class 'gluon.html.TABLE'>"
p351
sS'IS_IPV4'
p352
S"<class 'gluon.validators.IS_IPV4'>"
p353
sS'IS_LENGTH'
p354
S"<class 'gluon.validators.IS_LENGTH'>"
p355
sS'XML'
p356
S"<class 'gluon.html.XML'>"
p357
sS'B'
S"<class 'gluon.html.B'>"
p358
sS'form'
p359
S'<gluon.sqlhtml.SQLFORM object at 0x116a3190>'
p360
sS'SQLTABLE'
p361
S"<class 'gluon.sqlhtml.SQLTABLE'>"
p362
sS'IS_MATCH'
p363
S"<class 'gluon.validators.IS_MATCH'>"
p364
sS'IS_ALPHANUMERIC'
p365
S"<class 'gluon.validators.IS_ALPHANUMERIC'>"
p366
sS'SPAN'
p367
S"<class 'gluon.html.SPAN'>"
p368
sS'IS_SLUG'
p369
S"<class 'gluon.validators.IS_SLUG'>"
p370
sS'BEAUTIFY'
p371
S"<class 'gluon.html.BEAUTIFY'>"
p372
sS'META'
p373
S"<class 'gluon.html.META'>"
p374
sS'fetch'
p375
S'<function fetch at 0xc583470>'
p376
sS'IS_DATE'
p377
S"<class 'gluon.validators.IS_DATE'>"
p378
sS'IS_EMAIL'
p379
S"<class 'gluon.validators.IS_EMAIL'>"
p380
sS'IS_NOT_EMPTY'
p381
S"<class 'gluon.validators.IS_NOT_EMPTY'>"
p382
sg47
S"<Storage {'function': 'var_add', 'body': <cStrin... 17, 32, 26, 637277), 'post_vars': <Storage {}>}>"
p383
sS'TBODY'
p384
S"<class 'gluon.html.TBODY'>"
p385
sS'Field'
p386
S"<class 'gluon.dal.Field'>"
p387
sS'Mail'
p388
S"<class 'gluon.tools.Mail'>"
p389
sS'DIV'
p390
S"<class 'gluon.html.DIV'>"
p391
sS'LEGEND'
p392
S"<class 'gluon.html.LEGEND'>"
p393
sS'IMG'
p394
S"<class 'gluon.html.IMG'>"
p395
sS'DAL'
p396
S"<class 'gluon.dal.DAL'>"
p397
sS'TT'
p398
S"<class 'gluon.html.TT'>"
p399
sS'TR'
p400
S"<class 'gluon.html.TR'>"
p401
sS'LI'
p402
S"<class 'gluon.html.LI'>"
p403
sS'right_sidebar_enabled'
p404
g73
sS'IFRAME'
p405
S"<class 'gluon.html.IFRAME'>"
p406
sS'TD'
p407
S"<class 'gluon.html.TD'>"
p408
sS'PluginManager'
p409
S"<class 'gluon.tools.PluginManager'>"
p410
sS'IS_URL'
p411
S"<class 'gluon.validators.IS_URL'>"
p412
sS'A'
S"<class 'gluon.html.A'>"
p413
sS'STYLE'
p414
S"<class 'gluon.html.STYLE'>"
p415
sS'IS_DATETIME_IN_RANGE'
p416
S"<class 'gluon.validators.IS_DATETIME_IN_RANGE'>"
p417
sS'HTML'
p418
S"<class 'gluon.html.HTML'>"
p419
sS'IS_IMAGE'
p420
S"<class 'gluon.validators.IS_IMAGE'>"
p421
sS'I'
S"<class 'gluon.html.I'>"
p422
sS'crud'
p423
S'<gluon.tools.Crud object at 0x244ce70>'
p424
sS'right_sidebar_style'
p425
S'\'style="display: none;"\''
p426
sS'IS_NOT_IN_DB'
p427
S"<class 'gluon.validators.IS_NOT_IN_DB'>"
p428
sg150
S"<Storage {'status': 200, 'body': <cStringIO.Stri...bject at 0x116a3910>], '_custom_rollback': None}>"
p429
sS'THEAD'
p430
S"<class 'gluon.html.THEAD'>"
p431
sS'IS_NULL_OR'
p432
S"<class 'gluon.validators.IS_EMPTY_OR'>"
p433
sS'prettydate'
p434
S'<function prettydate at 0xc57ec70>'
p435
sS'IS_FLOAT_IN_RANGE'
p436
S"<class 'gluon.validators.IS_FLOAT_IN_RANGE'>"
p437
sS'IS_EXPR'
p438
S"<class 'gluon.validators.IS_EXPR'>"
p439
sS'T'
S'<gluon.languages.translator object at 0x244c8d0>'
p440
sS'IS_IN_SET'
p441
S"<class 'gluon.validators.IS_IN_SET'>"
p442
sS'IS_UPLOAD_FILENAME'
p443
S"<class 'gluon.validators.IS_UPLOAD_FILENAME'>"
p444
sS'style_content'
p445
S'\'style="width: 100%"\''
p446
sS'IS_DECIMAL_IN_RANGE'
p447
S"<class 'gluon.validators.IS_DECIMAL_IN_RANGE'>"
p448
sssS'traceback'
p449
S'Traceback (most recent call last):\n  File "gluon/restricted.py", line 188, in restricted\n  File "/Volumes/650Gb HD/web2py/web2py.app/Contents/Resources/applications/uc/views/default/var_add.html", line 97, in <module>\nNameError: name \'uc\' is not defined\n'
p450
s.