(dp1
S'output'
p2
S''
sS'layer'
p3
S'/Volumes/650Gb HD/web2py/web2py.app/Contents/Resources/applications/uc/controllers/default.py'
p4
sS'code'
p5
S'# -*- coding: utf-8 -*-\n\ndef index():\n    projects = db(db.project.id>0).select()\n    if len(request.args) > 0:\n        form = crud.update(db.project, db.project(request.args[0]))\n    else:\n        form = crud.create(db.project)\n    return dict(form = form, projects=projects)\n\ndef usecases():\n    p = db.project(request.args[0])\n    db.usecase.project = p.id\n    form = crud.create(db.usecase)\n    ucs = db(db.usecase.project == p.id).select()\n    return dict(project=p, form=form, usecases=ucs)\n    \ndef user():\n    """\n    exposes:\n    http://..../[app]/default/user/login\n    http://..../[app]/default/user/logout\n    http://..../[app]/default/user/register\n    http://..../[app]/default/user/profile\n    http://..../[app]/default/user/retrieve_password\n    http://..../[app]/default/user/change_password\n    use @auth.requires_login()\n        @auth.requires_membership(\'group name\')\n        @auth.requires_permission(\'read\',\'table name\',record_id)\n    to decorate functions that need access control\n    """\n    return dict(form=auth())\n\n\ndef download():\n    """\n    allows downloading of uploaded files\n    http://..../[app]/default/download/[filename]\n    """\n    return response.download(request,db)\n\n\ndef call():\n    """\n    exposes services. for example:\n    http://..../[app]/default/call/jsonrpc\n    decorate with @services.jsonrpc the functions to expose\n    supports xml, json, xmlrpc, jsonrpc, amfrpc, rss, csv\n    """\n    session.forget()\n    return service()\n\nresponse._vars=response._caller(usecases)\n'
p6
sS'snapshot'
p7
(dp8
S'exception'
p9
(dp10
S'__getslice__'
p11
S"<method-wrapper '__getslice__' of exceptions.SyntaxError object at 0x116a5430>"
p12
sS'text'
p13
S'None'
p14
sS'__str__'
p15
S"<method-wrapper '__str__' of exceptions.SyntaxError object at 0x116a5430>"
p16
sS'__reduce__'
p17
S'<built-in method __reduce__ of exceptions.SyntaxError object at 0x116a5430>'
p18
sS'__dict__'
p19
S'{}'
p20
sS'__init__'
p21
S"<method-wrapper '__init__' of exceptions.SyntaxError object at 0x116a5430>"
p22
sS'__setattr__'
p23
S"<method-wrapper '__setattr__' of exceptions.SyntaxError object at 0x116a5430>"
p24
sS'__reduce_ex__'
p25
S'<built-in method __reduce_ex__ of exceptions.SyntaxError object at 0x116a5430>'
p26
sS'__new__'
p27
S'<built-in method __new__ of type object at 0x23f9320>'
p28
sS'__class__'
p29
S"<type 'exceptions.SyntaxError'>"
p30
sS'filename'
p31
S'None'
p32
sS'lineno'
p33
S'None'
p34
sS'msg'
p35
S"'Object exists and cannot be redefined: project'"
p36
sS'__doc__'
p37
S"'Invalid syntax.'"
p38
sS'__getitem__'
p39
S"<method-wrapper '__getitem__' of exceptions.SyntaxError object at 0x116a5430>"
p40
sS'__setstate__'
p41
S'<built-in method __setstate__ of exceptions.SyntaxError object at 0x116a5430>'
p42
sS'__getattribute__'
p43
S"<method-wrapper '__getattribute__' of exceptions.SyntaxError object at 0x116a5430>"
p44
sS'print_file_and_line'
p45
S'None'
p46
sS'args'
p47
S"('Object exists and cannot be redefined: project',)"
p48
sS'offset'
p49
S'None'
p50
sS'__delattr__'
p51
S"<method-wrapper '__delattr__' of exceptions.SyntaxError object at 0x116a5430>"
p52
sS'__repr__'
p53
S"<method-wrapper '__repr__' of exceptions.SyntaxError object at 0x116a5430>"
p54
sS'__hash__'
p55
S"<method-wrapper '__hash__' of exceptions.SyntaxError object at 0x116a5430>"
p56
ssS'evalue'
p57
S'Object exists and cannot be redefined: project'
p58
sS'request'
p59
(dp60
S'function'
p61
S"'usecases'"
p62
sS'body'
p63
S'<cStringIO.StringO object at 0x244a7a0>'
p64
sS'wsgi'
p65
S"<Storage {'start_response': <function <lambda> a...eflate', 'PATH_INFO': '/uc/default/usecases/1'}}>"
p66
sS'extension'
p67
S"'html'"
p68
sS'vars'
p69
S'<Storage {}>'
p70
sS'cid'
p71
S'None'
p72
sS'url'
p73
S'<gluon.html.XML object at 0x244a770>'
p74
sS'raw_extension'
p75
S'None'
p76
sg47
S"['1']"
p77
sS'controller'
p78
S"'default'"
p79
sS'cookies'
p80
S"<SimpleCookie: __utma='96992031.364672225.129534...79' sessionid='8ac6b2c4407419651e81807c39ff405f'>"
p81
sS'application'
p82
S"'uc'"
p83
sS'ajax'
p84
S'False'
p85
sS'client'
p86
S"'127.0.0.1'"
p87
sS'env'
p88
S"<Storage {'wsgi_multithread': True, 'http_accept... '58135', 'path_info': '/uc/default/usecases/1'}>"
p89
sS'raw_args'
p90
S"'1'"
p91
sS'get_vars'
p92
S'<Storage {}>'
p93
sS'folder'
p94
S"'/Volumes/650Gb HD/web2py/web2py.app/Contents/Resources/applications/uc/'"
p95
sS'now'
p96
S'datetime.datetime(2011, 2, 1, 17, 1, 39, 423606)'
p97
sS'post_vars'
p98
S'<Storage {}>'
p99
ssS'frames'
p100
(lp101
(dp102
S'file'
p103
S'/Volumes/650Gb HD/web2py/web2py.app/Contents/Resources/gluon/restricted.py'
p104
sS'dump'
p105
(dp106
sS'lnum'
p107
I188
sS'lines'
p108
(dp109
sS'call'
p110
S"(code='# -*- coding: utf-8 -*-\\n\\ndef index():\\n    projec...ice()\\n\\nresponse._vars=response._caller(usecases)\\n', environment={'A': <class 'gluon.html.A'>, 'Auth': <class 'gluon.tools.Auth'>, 'B': <class 'gluon.html.B'>, 'BEAUTIFY': <class 'gluon.html.BEAUTIFY'>, 'BODY': <class 'gluon.html.BODY'>, 'BR': <class 'gluon.html.BR'>, 'CENTER': <class 'gluon.html.CENTER'>, 'CLEANUP': <class 'gluon.validators.CLEANUP'>, 'CODE': <class 'gluon.html.CODE'>, 'CRYPT': <class 'gluon.validators.CRYPT'>, ...}, layer='/Volumes/650Gb HD/web2py/web2py.app/Contents/Resources/applications/uc/controllers/default.py')"
p111
sS'func'
p112
S'restricted'
p113
sa(dp114
g103
S'/Volumes/650Gb HD/web2py/web2py.app/Contents/Resources/applications/uc/controllers/default.py'
p115
sg105
(dp116
sg107
I53
sg108
(dp117
I42
S''
sI43
S'def call():'
p118
sI44
S'    """'
p119
sI45
S'    exposes services. for example:'
p120
sI46
S'    http://..../[app]/default/call/jsonrpc'
p121
sI47
S'    decorate with @services.jsonrpc the functions to expose'
p122
sI48
S'    supports xml, json, xmlrpc, jsonrpc, amfrpc, rss, csv'
p123
sI49
S'    """'
p124
sI50
S'    session.forget()'
p125
sI51
S'    return service()'
p126
ssg110
S'()'
p127
sg112
S'<module>'
p128
sa(dp129
g103
S'/Volumes/650Gb HD/web2py/web2py.app/Contents/Resources/gluon/globals.py'
p130
sg105
(dp131
sg107
I95
sg108
(dp132
sg110
S'(f=<function usecases at 0x116a5330>)'
p133
sg112
S'<lambda>'
p134
sa(dp135
g103
S'/Volumes/650Gb HD/web2py/web2py.app/Contents/Resources/applications/uc/controllers/default.py'
p136
sg105
(dp137
sg107
I13
sg108
(dp138
I8
S'        form = crud.create(db.project)'
p139
sI9
S'    return dict(form = form, projects=projects)'
p140
sI10
S''
sI11
S'def usecases():'
p141
sI12
S'    p = db.project(request.args[0])'
p142
sI13
S'    db.usecase.project = p.id'
p143
sI14
S'    form = crud.create(db.usecase)'
p144
sI15
S'    ucs = db(db.usecase.project == p.id).select()'
p145
sI16
S'    return dict(project=p, form=form, usecases=ucs)'
p146
sI17
S''
ssg110
S'()'
p147
sg112
S'usecases'
p148
sa(dp149
g103
S'/Volumes/650Gb HD/web2py/web2py.app/Contents/Resources/gluon/dal.py'
p150
sg105
(dp151
sg107
I3828
sg108
(dp152
sg110
S"(self=<Table {'precondition': <gluon.dal.Field object ..., '_id': <gluon.dal.Field object at 0x1168db90>}>, key='project', value=1)"
p153
sg112
g23
sasS'pyver'
p154
S'Python 2.5.1: /Volumes/650Gb HD/web2py/web2py.app/Contents/MacOS/python'
p155
sS'session'
p156
(dp157
S'_formkey[project/None]'
p158
S"'420f13ce-717e-40a2-bf41-039e4a3cba53'"
p159
sS'_formkey[project/1]'
p160
S"'d49c6ac59c76b66e2a0ff40ebdc3a834'"
p161
sS'auth'
p162
S'None'
p163
ssS'etype'
p164
S"<type 'exceptions.SyntaxError'>"
p165
sS'date'
p166
S'Tue Feb  1 17:01:39 2011'
p167
sS'response'
p168
(dp169
S'status'
p170
S'200'
p171
sg63
S'<cStringIO.StringO object at 0x116b4200>'
p172
sg80
S"<SimpleCookie: session_id_uc='127.0.0.1-dfb3032e-0008-493a-8a6e-67b71739aced'>"
p173
sS'_vars'
p174
S'None'
p175
sS'title'
p176
S"'uc'"
p177
sS'session_file'
p178
S"<open file '/Volumes/650Gb HD/web2py/web2py.app/...93a-8a6e-67b71739aced', mode 'rb+' at 0x116c40f8>"
p179
sS'flash'
p180
S"''"
p181
sS'_custom_rollback'
p182
S'None'
p183
sS'session_id'
p184
S"'127.0.0.1-dfb3032e-0008-493a-8a6e-67b71739aced'"
p185
sS'headers'
p186
S"<Storage {'Expires': 'Tue, 01 Feb 2011 15:01:39 ...he, must-revalidate, post-check=0, pre-check=0'}>"
p187
sS'meta'
p188
S"<Storage {'keywords': 'web2py, python, framework... 'Web2py Enterprise Framework', 'author': 'you'}>"
p189
sS'session_filename'
p190
S"'/Volumes/650Gb HD/web2py/web2py.app/Contents/Res...ns/127.0.0.1-dfb3032e-0008-493a-8a6e-67b71739aced'"
p191
sS'postprocessing'
p192
S'[]'
p193
sS'menu'
p194
S"[(<lazyT 'Home'>, False, <gluon.html.XML object at 0x13122910>, []), (<lazyT 'This App'>, False, <gluon.html.XML object at 0x13122990>, [(<lazyT 'Controller'>, False, <gluon.html.XML object at 0x131223b0>), (<lazyT 'View'>, False, <gluon.html.XML object at 0x13122730>), (<lazyT 'Layout'>, False, <gluon.html.XML object at 0x13122590>), (<lazyT 'Stylesheet'>, False, <gluon.html.XML object at 0x131225f0>), (<lazyT 'DB Model'>, False, <gluon.html.XML object at 0x13122630>), (<lazyT 'Menu Model'>, False, <gluon.html.XML object at 0x13122050>), (<lazyT 'Database'>, False, <gluon.html.XML object at 0x131221d0>), (<lazyT 'Errors'>, False, <gluon.html.XML object at 0x13122350>), (<lazyT 'About'>, False, <gluon.html.XML object at 0x131220f0>)]), (<lazyT 'Resources'>, False, None, [(<lazyT 'Documentation'>, False, 'http://www.web2py.com/book', [(<lazyT 'Preface'>, False, 'http://www.web2py.com/book/default/chapter/00'), (<lazyT 'Introduction'>, False, 'http://www.web2py.com/book/default/chapter/01'), (<lazyT 'Python'>, False, 'http://www.web2py.com/book/default/chapter/02'), (<lazyT 'Overview'>, False, 'http://www.web2py.com/book/default/chapter/03'), (<lazyT 'The Core'>, False, 'http://www.web2py.com/book/default/chapter/04'), (<lazyT 'The Views'>, False, 'http://www.web2py.com/book/default/chapter/05'), (<lazyT 'Database'>, False, 'http://www.web2py.com/book/default/chapter/06'), (<lazyT 'Forms and Validators'>, False, 'http://www.web2py.com/book/default/chapter/07'), (<lazyT 'Access Control'>, False, 'http://www.web2py.com/book/default/chapter/08'), (<lazyT 'Services'>, False, 'http://www.web2py.com/book/default/chapter/09'), (<lazyT 'Ajax Recipes'>, False, 'http://www.web2py.com/book/default/chapter/10'), (<lazyT 'Deployment Recipes'>, False, 'http://www.web2py.com/book/default/chapter/11'), (<lazyT 'Other Recipes'>, False, 'http://www.web2py.com/book/default/chapter/12'), (<lazyT 'Buy this book'>, False, 'http://stores.lulu.com/web2py')]), (<lazyT 'Community'>, False, None, [(<lazyT 'Groups'>, False, 'http://www.web2py.com/examples/default/usergroups'), (<lazyT 'Twitter'>, False, 'http://twitter.com/web2py'), (<lazyT 'Live chat'>, False, 'http://mibbit.com/?channel=%23web2py&server=irc.mibbit.net'), (<lazyT 'User Voice'>, False, 'http://web2py.uservoice.com/')]), (<lazyT 'Web2py'>, False, 'http://www.web2py.com', [(<lazyT 'Download'>, False, 'http://www.web2py.com/examples/default/download'), (<lazyT 'Support'>, False, 'http://www.web2py.com/examples/default/support'), (<lazyT 'Quick Examples'>, False, 'http://web2py.com/examples/default/examples'), (<lazyT 'FAQ'>, False, 'http://web2py.com/AlterEgo'), (<lazyT 'Free Applications'>, False, 'http://web2py.com/appliances'), (<lazyT 'Plugins'>, False, 'http://web2py.com/plugins'), (<lazyT 'Recipes'>, False, 'http://web2pyslices.com/'), (<lazyT 'Demo'>, False, 'http://web2py.com/demo_admin'), (<lazyT 'Semantic'>, False, 'http://web2py.com/semantic'), (<lazyT 'Layouts'>, False, 'http://web2py.com/layouts'), (<lazyT 'Videos'>, False, 'http://www.web2py.com/examples/default/videos/')])])]"
p195
sS'_view_environment'
p196
S"{'A': <class 'gluon.html.A'>, 'Auth': <class 'gluon.tools.Auth'>, 'B': <class 'gluon.html.B'>, 'BEAUTIFY': <class 'gluon.html.BEAUTIFY'>, 'BODY': <class 'gluon.html.BODY'>, 'BR': <class 'gluon.html.BR'>, 'CENTER': <class 'gluon.html.CENTER'>, 'CLEANUP': <class 'gluon.validators.CLEANUP'>, 'CODE': <class 'gluon.html.CODE'>, 'CRYPT': <class 'gluon.validators.CRYPT'>, ...}"
p197
sS'subtitle'
p198
S"<lazyT 'customize me!'>"
p199
sS'session_id_name'
p200
S"'session_id_uc'"
p201
sS'_custom_commit'
p202
S'None'
p203
sS'_caller'
p204
S'<function <lambda> at 0x2448070>'
p205
sS'files'
p206
S'[]'
p207
sS'view'
p208
S"'default/usecases.html'"
p209
ssS'locals'
p210
(dp211
S'self'
p212
S"<Table {'precondition': <gluon.dal.Field object ..., '_id': <gluon.dal.Field object at 0x1168db90>}>"
p213
sS'value'
p214
S'1'
sS'key'
p215
S"'project'"
p216
sssS'traceback'
p217
S'Traceback (most recent call last):\n  File "gluon/restricted.py", line 188, in restricted\n  File "/Volumes/650Gb HD/web2py/web2py.app/Contents/Resources/applications/uc/controllers/default.py", line 53, in <module>\n  File "gluon/globals.py", line 95, in <lambda>\n  File "/Volumes/650Gb HD/web2py/web2py.app/Contents/Resources/applications/uc/controllers/default.py", line 13, in usecases\n  File "gluon/dal.py", line 3828, in __setattr__\nSyntaxError: Object exists and cannot be redefined: project\n'
p218
s.