(dp1
S'output'
p2
S''
sS'layer'
p3
S'/Volumes/650Gb HD/web2py/web2py.app/Contents/Resources/applications/uc/views/default/index.html'
p4
sS'code'
p5
S'response.write(\'<!DOCTYPE html>\\n<html lang="\', escape=False)\nresponse.write(T.accepted_language or \'en\')\nresponse.write(\'" class="no-js"><!-- no-js need it for modernzr -->\\n  <head>\\n    \\n    <meta charset="utf-8" />\\t  \\t\\n    <!-- www.phpied.com/conditional-comments-block-downloads/ -->\\n    <!--[if IE]><![endif]-->    \\n    <!-- Always force latest IE rendering engine \\n\\t (even in intranet) & Chrome Frame \\n\\t Remove this if you use the .htaccess -->\\n    <meta http-equiv="X-UA-Compatible" content="IE=edge,chrome=1">\\n    \\n    <title>\', escape=False)\nresponse.write(response.title or request.application)\nresponse.write(\'</title>\\n    \\n    <!-- http://dev.w3.org/html5/markup/meta.name.html -->\\n    <meta name="application-name" content="\', escape=False)\nresponse.write(request.application)\nresponse.write(\'" />\\t\\n    \\n    <!-- Speaking of Google, don\\\'t forget to set your site up: \\n\\t http://google.com/webmasters -->\\n    <meta name="google-site-verification" content="" />\\n    \\n    <!--  Mobile Viewport Fix\\n\\t  j.mp/mobileviewport & davidbcalhoun.com/2010/viewport-metatag \\n\\t  device-width: Occupy full width of the screen in its current orientation\\n\\t  initial-scale = 1.0 retains dimensions instead of zooming out if page height > device height\\n\\t  maximum-scale = 1.0 retains dimensions instead of zooming in if page width < device width\\n      -->\\n    <meta name="viewport" content="width=device-width; initial-scale=1.0; maximum-scale=1.0;">\\n    \\n    <!-- Place favicon.ico and apple-touch-icon.png in the root of your domain and delete these references -->\\n    <link rel="shortcut icon" href="\', escape=False)\nresponse.write(URL(\'static\',\'favicon.ico\'))\nresponse.write(\'" type="image/x-icon">\\n    <link rel="apple-touch-icon" href="\', escape=False)\nresponse.write(URL(\'static\',\'favicon.png\'))\nresponse.write(\'">\\n\\n    <!-- For the less-enabled mobile browsers like Opera Mini -->\\n    <link rel="stylesheet" media="handheld" href="\', escape=False)\nresponse.write(URL(\'static\',\'css/handheld.css\'))\nresponse.write(\'">\\n    \\n    <!-- All JavaScript at the bottom, except for Modernizr which enables HTML5 elements & feature detects -->\\n    <script src="\', escape=False)\nresponse.write(URL(\'static\',\'js/modernizr-1.6.min.js\'))\nresponse.write(\'"></script>\\n    \\n    \', escape=False)\n#------  require CSS and JS files for this page (read info in base.css) ------\nresponse.write(\'\\n    \', escape=False)\nresponse.files.append(URL(\'static\',\'css/base.css\'))\nresponse.write(\'\\n    \', escape=False)\nresponse.files.append(URL(\'static\',\'css/superfish.css\'))\nresponse.write(\'\\n    \', escape=False)\nresponse.files.append(URL(\'static\',\'js/superfish.js\'))\nresponse.write(\'\\n    \', escape=False)\n#------ include web2py specific js code (jquery, calendar, form stuff) ------\nresponse.write(\'\\n    \', escape=False)\nresponse.files.insert(0,URL(\'static\',\'js/jquery.js\'))\nresponse.files.insert(1,URL(\'static\',\'css/calendar.css\'))\nresponse.files.insert(2,URL(\'static\',\'js/calendar.js\'))\nfor _item in response.meta or []:\n    response.write(\'\\n     <meta name="\', escape=False)\n    response.write(_item)\n    response.write(\'" content="\', escape=False)\n    response.write(response.meta[_item])\n    response.write(\'" />\', escape=False)\n    pass\nfor _k,_file in enumerate(response.files or []):\n    if _file in response.files[:_k]:\n        continue\n    _file0=_file.lower().split(\'?\')[0]\n    if _file0.endswith(\'.css\'):\n        response.write(\'\\n     <link href="\', escape=False)\n        response.write(_file)\n        response.write(\'" rel="stylesheet" type="text/css" />\', escape=False)\n    elif _file0.endswith(\'.js\'):\n        response.write(\'\\n     <script src="\', escape=False)\n        response.write(_file)\n        response.write(\'" type="text/javascript"></script>\', escape=False)\n        pass\n    pass\nresponse.write(\'\\n  \\n<script type="text/javascript"><!--\\nfunction popup(url) {\\n  newwindow=window.open(url,\\\'name\\\',\\\'height=400,width=600\\\');\\n  if (window.focus) newwindow.focus();\\n  return false;\\n}\\nfunction collapse(id) { jQuery(\\\'#\\\'+id).slideToggle(); }\\nfunction fade(id,value) { if(value>0) jQuery(\\\'#\\\'+id).hide().fadeIn(\\\'slow\\\'); else jQuery(\\\'#\\\'+id).show().fadeOut(\\\'slow\\\'); }\\nfunction ajax(u,s,t) {\\n    query = \\\'\\\';\\n    if (typeof s == "string") {\\n        d = jQuery(s).serialize();\\n        if(d){ query = d; }\\n    } else {\\n        pcs = [];\\n        for(i=0; i<s.length; i++) {\\n            q = jQuery("[name="+s[i]+"]").serialize();\\n            if(q){pcs.push(q);}\\n        }\\n        if (pcs.length>0){query = pcs.join("&");}\\n    }\\n    jQuery.ajax({type: "POST", url: u, data: query, success: function(msg) { if(t) { if(t==\\\':eval\\\') eval(msg); else jQuery("#" + t).html(msg); } } }); \\n}\\n\\nString.prototype.reverse = function () { return this.split(\\\'\\\').reverse().join(\\\'\\\');};\\nfunction web2py_ajax_init() {\\n  jQuery(\\\'.hidden\\\').hide();\\n  jQuery(\\\'.error\\\').hide().slideDown(\\\'slow\\\');\\n  jQuery(\\\'.flash\\\').click(function() { jQuery(this).fadeOut(\\\'slow\\\'); return false; });\\n  // jQuery(\\\'input[type=submit]\\\').click(function(){var t=jQuery(this);t.hide();t.after(\\\'<input class="submit_disabled" disabled="disabled" type="submit" name="\\\'+t.attr("name")+\\\'_dummy" value="\\\'+t.val()+\\\'">\\\')});\\n  jQuery(\\\'input.integer\\\').live(\\\'keyup\\\', function(){this.value=this.value.reverse().replace(/[^0-9\\\\-]|\\\\-(?=.)/g,\\\'\\\').reverse();});\\n  jQuery(\\\'input.double,input.decimal\\\').live(\\\'keyup\\\', function(){this.value=this.value.reverse().replace(/[^0-9\\\\-\\\\.]|[\\\\-](?=.)|[\\\\.](?=[0-9]*[\\\\.])/g,\\\'\\\').reverse();});\\n  jQuery("input[type=\\\'checkbox\\\'].delete").live(\\\'click\\\', function(){ if(this.checked) if(!confirm("\', escape=False)\nresponse.write(T(\'Sure you want to delete this object?\'))\nresponse.write(\'")) this.checked=false; });\\n  try {jQuery("input.date").live(\\\'focus\\\',function() {Calendar.setup({\\n     inputField:this, ifFormat:"\', escape=False)\nresponse.write(T(\'%Y-%m-%d\'))\nresponse.write(\'", showsTime:false\\n  }); }); } catch(e) {};\\n  try { jQuery("input.datetime").live(\\\'focus\\\', function() {Calendar.setup({\\n     inputField:this, ifFormat:"\', escape=False)\nresponse.write(T(\'%Y-%m-%d %H:%M:%S\'))\nresponse.write(\'", showsTime: true,timeFormat: "24"\\n  }); }); } catch(e) {};\\n\\n  jQuery("input.time").live(\\\'focus\\\', function() { var el = jQuery(this); \\n          if (!el.hasClass(\\\'hasTimeEntry\\\')) try { el.timeEntry(); } catch(e) {}; \\n  });\\n};\\n\\njQuery(document).ready(function() {   \\n   var flash = jQuery(\\\'.flash\\\');\\n   flash.hide();\\n   if(flash.html()) flash.slideDown();\\n   web2py_ajax_init();\\n});\\nfunction web2py_trap_form(action,target) {\\n   jQuery(\\\'#\\\'+target+\\\' form\\\').each(function(i){\\n      var form=jQuery(this);\\n      if(!form.hasClass(\\\'no_trap\\\'))\\n        form.submit(function(obj){\\n         jQuery(\\\'.flash\\\').hide().html(\\\'\\\');\\n         web2py_ajax_page(\\\'post\\\',action,form.serialize(),target);\\n         return false;\\n      });\\n   });\\n}\\nfunction web2py_ajax_page(method,action,data,target) {\\n  jQuery.ajax({\\\'type\\\':method,\\\'url\\\':action,\\\'data\\\':data,\\n    \\\'beforeSend\\\':function(xhr) {\\n      xhr.setRequestHeader(\\\'web2py-component-location\\\',document.location);\\n      xhr.setRequestHeader(\\\'web2py-component-element\\\',target);},\\n    \\\'complete\\\':function(xhr,text){\\n      var html=xhr.responseText;\\n      var content=xhr.getResponseHeader(\\\'web2py-component-content\\\'); \\n      var command=xhr.getResponseHeader(\\\'web2py-component-command\\\');\\n      var flash=xhr.getResponseHeader(\\\'web2py-component-flash\\\');\\n      var t = jQuery(\\\'#\\\'+target);\\n      if(content==\\\'prepend\\\') t.prepend(html); \\n      else if(content==\\\'append\\\') t.append(html);\\n      else if(content!=\\\'hide\\\') t.html(html);  \\n      web2py_trap_form(action,target);\\n      web2py_ajax_init();      \\n      if(command) eval(command);\\n      if(flash) jQuery(\\\'.flash\\\').html(flash).slideDown();\\n      }\\n    });\\n}\\nfunction web2py_component(action,target) {\\n  jQuery(document).ready(function(){ web2py_ajax_page(\\\'get\\\',action,null,target); });\\n}\\nfunction web2py_comet(url,onmessage,onopen,onclose) {\\n  if ("WebSocket" in window) {\\n    var ws = new WebSocket(url);\\n    ws.onopen = onopen?onopen:(function(){});\\n    ws.onmessage = onmessage;\\n    ws.onclose = onclose?onclose:(function(){});\\n    return true; // supported\\n  } else return false; // not supported\\n}\\n//--></script>\\n\', escape=False)\nresponse.write(\'\\n\\n    \', escape=False)\n#using sidebars need to know what sidebar you want to use\n#prior of using it, because of static width size of content, you can use\n#left_sidebar, right_sidebar, both or none (False left and right)\nleft_sidebar_enabled = globals().get(\'left_sidebar_enabled\',False)\nright_sidebar_enabled = globals().get(\'right_sidebar_enabled\',False)\nif left_sidebar_enabled and right_sidebar_enabled: width_content=\'63%\'\nelif left_sidebar_enabled != right_sidebar_enabled: width_content=\'740px\'\nelse: width_content=\'100%\'\nif left_sidebar_enabled: left_sidebar_style = \'style="display: block;"\'\nelse: left_sidebar_style = \'style="display: none;"\'\nif right_sidebar_enabled: right_sidebar_style = \'style="display: block;"\'\nelse: right_sidebar_style = \'style="display: none;"\'\nstyle_content = \'style="width: %s"\' % width_content\nresponse.write(\'\\n  </head>\\n  \\n  <!-- paulirish.com/2008/conditional-stylesheets-vs-css-hacks-answer-neither/ -->\\t\\n  <!--[if lt IE 7 ]> <body class="ie6"> <![endif]-->\\n  <!--[if IE 7 ]>    <body class="ie7"> <![endif]-->\\n  <!--[if IE 8 ]>    <body class="ie8"> <![endif]-->\\n  <!--[if IE 9 ]>    <body class="ie9"> <![endif]-->\\n  <!--[if (gt IE 9)|!(IE)]><!--> <body> <!--<![endif]-->\\n    \\n    <div class="flash">\', escape=False)\nresponse.write(response.flash or \'\')\nresponse.write(\'</div> <!-- notification div -->\\n    \\n    <div id="container">\\t      \\t\\t      \\t\\n      \\n      <div id="wrapper">\\t\\t\\n\\t\\n\\t<div id="header"> <!-- header and login nav -->\\n\\t  \', escape=False)\nresponse.write(\' <!-- this is default header -->\\n\\t  \', escape=False)\ntry:\n    response.write(auth.navbar(action=URL(\'default\',\'user\')))\nexcept:pass\nresponse.write(\'\\t\\t          \\n\\t  <div id="logo"><!-- put your logo here --></div>\\n\\t  <div style="clear: both;"></div><!-- Clear the divs -->\\n\\t  \', escape=False)\nresponse.write(\'\\t\\t\\t\\t  \\t\\t\\t\\t\\t  \\n\\t</div><!-- header  -->\\n\\t\\n\\t<div id="statusbar"><!-- statusbar is menu zone -->\\n\\t  \', escape=False)\nresponse.write(\' <!-- this is default statusbar -->\\n\\t  \', escape=False)\n#------ superfish menu ------\nresponse.write(\'\\n\\t  \', escape=False)\nresponse.write(MENU(response.menu,_class=\'sf-menu\'))\nresponse.write(\'\\n\\t  <script type="text/javascript">\\n\\t    jQuery(document).ready(function(){\\n\\t    jQuery(\\\'ul.sf-menu\\\').superfish();});\\n\\t  </script>\\n\\t  <div style="clear: both;"></div><!-- Clear the divs -->\\t\\n\\t  \', escape=False)\nresponse.write(\'\\t\\t\\t\\t\\n\\t</div><!-- statusbar -->\\n\\t\\n\\t<div id="page"> <!-- Here my central body -->\\t  \\n\\n\\t  \', escape=False)\nif left_sidebar_enabled:\n    response.write(\'\\n          <div id="left_sidebar" \', escape=False)\n    response.write(XML(left_sidebar_style))\n    response.write(\' >\\n            <div style="padding: 4px;">\\n\\t      \', escape=False)\n    response.write(\'Content Left Sidebar\', escape=False)\n    response.write(\'\\t\\t  \\n            </div>\\n          </div><!-- left_sidebar -->\\n\\t  \', escape=False)\n    pass\nresponse.write(\'\\n\\n\\t  <!-- content -->\\n\\t  <div id="content" \', escape=False)\nresponse.write(XML(style_content))\nresponse.write(\' >\\n\\t    \', escape=False)\nresponse.write(\'\\n\\n<h1>\', escape=False)\nresponse.write(T(\'Projects\'))\nresponse.write(\'</h1>\\n\\n\', escape=False)\nresponse.write(form)\nresponse.write(\'\\n\\n<ul>\\n    \', escape=False)\nfor p in projects:\n    response.write(\'\\n    <li><a href="\', escape=False)\n    response.write(Url(\'index\', args=[p.id]))\n    response.write(\'">\', escape=False)\n    response.write(p.name)\n    response.write(\'</a> \', escape=False)\n    response.write(p.client)\n    response.write(\' \', escape=False)\n    response.write(p.description)\n    response.write(\'</li>\\n    \', escape=False)\n    pass\nresponse.write(\'\\n</ul>\\n\', escape=False)\nresponse.write(\'\\t\\n\\t  </div>\\n\\t  <!-- content -->\\n\\n\\t  \', escape=False)\nif right_sidebar_enabled:\n    response.write(\'\\n          <div id="right_sidebar" \', escape=False)\n    response.write(XML(right_sidebar_style))\n    response.write(\' >\\n            <div style="padding: 4px;">\\n              \', escape=False)\n    response.write(\'Content Right Sidebar\', escape=False)\n    response.write(\'\\n            </div>\\n\\t  </div><!-- right_sidebar -->\\n          \', escape=False)\n    pass\nresponse.write(\'\\n\\n\\n\\t  <div style="clear: both;"></div><!-- Clear the divs -->\\n\\t  \\n\\t</div><!-- page -->\\t\\t\\t\\t\\t\\t\\t\\n\\t\\n\\t<div id="footer">\\n\\t  \', escape=False)\nresponse.write(\' <!-- this is default footer -->\\n\\t  <a href="http://www.web2py.com/" style="float: left; padding-right: 6px;">\\n\\t    <img src="\', escape=False)\nresponse.write(URL(\'static\',\'images/poweredby.png\'))\nresponse.write(\'"/>\\n\\t  </a>\\n\\t  \', escape=False)\nresponse.write(T(\'Copyright\'))\nresponse.write(\' &#169; 2010\\t\\t\\t\\t\\n\\t  <div style="clear: both;"></div><!-- Clear the divs -->\\n\\t  \', escape=False)\nresponse.write(\'\\n\\n\\t</div><!-- footer -->\\t\\t\\t\\n      </div><!-- wrapper -->\\n    </div><!-- container -->\\t\\t\\n    \\n    <!--[if lt IE 7 ]>\\n\\t<script src="\', escape=False)\nresponse.write(URL(\'static\',\'js/dd_belatedpng.js\'))\nresponse.write(\'"></script>\\n\\t<script> DD_belatedPNG.fix(\\\'img, .png_bg\\\'); //fix any <img> or .png_bg background-images </script>\\n\\t<![endif]-->\\n    \\n    <!-- asynchronous google analytics: mathiasbynens.be/notes/async-analytics-snippet \\n\\t change the UA-XXXXX-X to be your site\\\'s ID -->\\n    <!--   \\n\\t   <script>\\n\\t     var _gaq = [[\\\'_setAccount\\\', \\\'UA-XXXXX-X\\\'], [\\\'_trackPageview\\\']];\\n\\t     (function(d, t) {\\n\\t     var g = d.createElement(t),\\n\\t     s = d.getElementsByTagName(t)[0];\\n\\t     g.async = true;\\n\\t     g.src = \\\'//www.google-analytics.com/ga.js\\\';\\n\\t     s.parentNode.insertBefore(g, s);\\n\\t     })(document, \\\'script\\\');\\n\\t   </script>\\n\\t   -->    \\n  </body>\\n</html>\\n\', escape=False)'
p6
sS'snapshot'
p7
(dp8
S'exception'
p9
(dp10
S'__hash__'
p11
S"<method-wrapper '__hash__' of exceptions.NameError object at 0xc590300>"
p12
sS'__setattr__'
p13
S"<method-wrapper '__setattr__' of exceptions.NameError object at 0xc590300>"
p14
sS'__reduce_ex__'
p15
S'<built-in method __reduce_ex__ of exceptions.NameError object at 0xc590300>'
p16
sS'__getslice__'
p17
S"<method-wrapper '__getslice__' of exceptions.NameError object at 0xc590300>"
p18
sS'__getitem__'
p19
S"<method-wrapper '__getitem__' of exceptions.NameError object at 0xc590300>"
p20
sS'__setstate__'
p21
S'<built-in method __setstate__ of exceptions.NameError object at 0xc590300>'
p22
sS'__reduce__'
p23
S'<built-in method __reduce__ of exceptions.NameError object at 0xc590300>'
p24
sS'__str__'
p25
S"<method-wrapper '__str__' of exceptions.NameError object at 0xc590300>"
p26
sS'args'
p27
S'("name \'Url\' is not defined",)'
p28
sS'__getattribute__'
p29
S"<method-wrapper '__getattribute__' of exceptions.NameError object at 0xc590300>"
p30
sS'__class__'
p31
S"<type 'exceptions.NameError'>"
p32
sS'__delattr__'
p33
S"<method-wrapper '__delattr__' of exceptions.NameError object at 0xc590300>"
p34
sS'__repr__'
p35
S"<method-wrapper '__repr__' of exceptions.NameError object at 0xc590300>"
p36
sS'__dict__'
p37
S'{}'
p38
sS'__doc__'
p39
S"'Name not found globally.'"
p40
sS'__init__'
p41
S"<method-wrapper '__init__' of exceptions.NameError object at 0xc590300>"
p42
sS'__new__'
p43
S'<built-in method __new__ of type object at 0x23f9640>'
p44
ssS'evalue'
p45
S"name 'Url' is not defined"
p46
sS'request'
p47
(dp48
S'function'
p49
S"'index'"
p50
sS'body'
p51
S'<cStringIO.StringO object at 0x116fa980>'
p52
sS'wsgi'
p53
S"<Storage {'start_response': <function <lambda> a...ENCODING': 'gzip,deflate', 'PATH_INFO': '/uc/'}}>"
p54
sS'extension'
p55
S"'html'"
p56
sS'vars'
p57
S'<Storage {}>'
p58
sS'cid'
p59
S'None'
p60
sS'url'
p61
S'<gluon.html.XML object at 0x116fa0b0>'
p62
sS'raw_extension'
p63
S'None'
p64
sg27
S'[]'
p65
sS'controller'
p66
S"'default'"
p67
sS'cookies'
p68
S"<SimpleCookie: __utma='96992031.364672225.129534...79' sessionid='8ac6b2c4407419651e81807c39ff405f'>"
p69
sS'application'
p70
S"'uc'"
p71
sS'ajax'
p72
S'False'
p73
sS'client'
p74
S"'127.0.0.1'"
p75
sS'env'
p76
S"<Storage {'wsgi_multithread': True, 'http_accept...se, 'remote_port': '58012', 'path_info': '/uc/'}>"
p77
sS'raw_args'
p78
S'None'
p79
sS'get_vars'
p80
S'<Storage {}>'
p81
sS'folder'
p82
S"'/Volumes/650Gb HD/web2py/web2py.app/Contents/Resources/applications/uc/'"
p83
sS'now'
p84
S'datetime.datetime(2011, 2, 1, 16, 44, 27, 328510)'
p85
sS'post_vars'
p86
S'<Storage {}>'
p87
ssS'frames'
p88
(lp89
(dp90
S'file'
p91
S'/Volumes/650Gb HD/web2py/web2py.app/Contents/Resources/gluon/restricted.py'
p92
sS'dump'
p93
(dp94
sS'lnum'
p95
I188
sS'lines'
p96
(dp97
sS'call'
p98
S'(code=\'response.write(\\\'<!DOCTYPE html>\\\\n<html lang="\\\', ...t   -->    \\\\n  </body>\\\\n</html>\\\\n\\\', escape=False)\', environment={\'A\': <class \'gluon.html.A\'>, \'Auth\': <class \'gluon.tools.Auth\'>, \'B\': <class \'gluon.html.B\'>, \'BEAUTIFY\': <class \'gluon.html.BEAUTIFY\'>, \'BODY\': <class \'gluon.html.BODY\'>, \'BR\': <class \'gluon.html.BR\'>, \'CENTER\': <class \'gluon.html.CENTER\'>, \'CLEANUP\': <class \'gluon.validators.CLEANUP\'>, \'CODE\': <class \'gluon.html.CODE\'>, \'CRYPT\': <class \'gluon.validators.CRYPT\'>, ...}, layer=\'/Volumes/650Gb HD/web2py/web2py.app/Contents/Resources/applications/uc/views/default/index.html\')'
p99
sS'func'
p100
S'restricted'
p101
sa(dp102
g91
S'/Volumes/650Gb HD/web2py/web2py.app/Contents/Resources/applications/uc/views/default/index.html'
p103
sg93
(dp104
sg95
I103
sg96
(dp105
I96
S"response.write('\\n\\n<h1>', escape=False)"
p106
sI97
S"response.write(T('Projects'))"
p107
sI98
S"response.write('</h1>\\n\\n', escape=False)"
p108
sI99
S'response.write(form)'
p109
sI100
S"response.write('\\n\\n<ul>\\n    ', escape=False)"
p110
sI101
S'for p in projects:'
p111
sI102
S'    response.write(\'\\n    <li><a href="\', escape=False)'
p112
sI103
S"    response.write(Url('index', args=[p.id]))"
p113
sI104
S'    response.write(\'">\', escape=False)'
p114
sI105
S'    response.write(p.name)'
p115
sI106
S"    response.write('</a> ', escape=False)"
p116
sI107
S'    response.write(p.client)'
p117
sI108
S"    response.write(' ', escape=False)"
p118
sI109
S'    response.write(p.description)'
p119
sI110
S"    response.write('</li>\\n    ', escape=False)"
p120
sI111
S'    pass'
p121
sI112
S"response.write('\\n</ul>\\n', escape=False)"
p122
sI113
S"response.write('\\t\\n\\t  </div>\\n\\t  <!-- content -->\\n\\n\\t  ', escape=False)"
p123
sI94
S'response.write(XML(style_content))'
p124
sI95
S"response.write(' >\\n\\t    ', escape=False)"
p125
ssg98
S'()'
p126
sg100
S'<module>'
p127
sasS'pyver'
p128
S'Python 2.5.1: /Volumes/650Gb HD/web2py/web2py.app/Contents/MacOS/python'
p129
sS'session'
p130
(dp131
S'_formkey[project/None]'
p132
S"'27f62dca-c06a-489b-b06f-efc273a41b5e'"
p133
sS'auth'
p134
S'None'
p135
ssS'etype'
p136
S"<type 'exceptions.NameError'>"
p137
sS'date'
p138
S'Tue Feb  1 16:44:27 2011'
p139
sS'response'
p140
(dp141
S'status'
p142
S'200'
p143
sg51
S'<cStringIO.StringO object at 0x116fa020>'
p144
sg68
S"<SimpleCookie: session_id_uc='127.0.0.1-dfb3032e-0008-493a-8a6e-67b71739aced'>"
p145
sS'_vars'
p146
S"{'form': <gluon.sqlhtml.SQLFORM object at 0xc5b17b0>, 'projects': <gluon.dal.Rows object at 0xc5b15f0>}"
p147
sS'title'
p148
S"'uc'"
p149
sS'session_file'
p150
S"<open file '/Volumes/650Gb HD/web2py/web2py.app/...493a-8a6e-67b71739aced', mode 'rb+' at 0x2458de8>"
p151
sS'flash'
p152
S"''"
p153
sS'_custom_rollback'
p154
S'None'
p155
sS'session_id'
p156
S"'127.0.0.1-dfb3032e-0008-493a-8a6e-67b71739aced'"
p157
sS'headers'
p158
S"<Storage {'Expires': 'Tue, 01 Feb 2011 14:44:27 ...he, must-revalidate, post-check=0, pre-check=0'}>"
p159
sS'meta'
p160
S"<Storage {'keywords': 'web2py, python, framework... 'Web2py Enterprise Framework', 'author': 'you'}>"
p161
sS'session_filename'
p162
S"'/Volumes/650Gb HD/web2py/web2py.app/Contents/Res...ns/127.0.0.1-dfb3032e-0008-493a-8a6e-67b71739aced'"
p163
sS'postprocessing'
p164
S'[]'
p165
sS'menu'
p166
S"[(<lazyT 'Home'>, False, <gluon.html.XML object at 0x116e5e90>, []), (<lazyT 'This App'>, False, <gluon.html.XML object at 0xc55aa90>, [(<lazyT 'Controller'>, False, <gluon.html.XML object at 0xc55a9f0>), (<lazyT 'View'>, False, <gluon.html.XML object at 0xc55ae10>), (<lazyT 'Layout'>, False, <gluon.html.XML object at 0xc55a8f0>), (<lazyT 'Stylesheet'>, False, <gluon.html.XML object at 0xc55aad0>), (<lazyT 'DB Model'>, False, <gluon.html.XML object at 0xc55aab0>), (<lazyT 'Menu Model'>, False, <gluon.html.XML object at 0xc55aa10>), (<lazyT 'Database'>, False, <gluon.html.XML object at 0x1176ddb0>), (<lazyT 'Errors'>, False, <gluon.html.XML object at 0x1176de10>), (<lazyT 'About'>, False, <gluon.html.XML object at 0x1176df70>)]), (<lazyT 'Resources'>, False, None, [(<lazyT 'Documentation'>, False, 'http://www.web2py.com/book', [(<lazyT 'Preface'>, False, 'http://www.web2py.com/book/default/chapter/00'), (<lazyT 'Introduction'>, False, 'http://www.web2py.com/book/default/chapter/01'), (<lazyT 'Python'>, False, 'http://www.web2py.com/book/default/chapter/02'), (<lazyT 'Overview'>, False, 'http://www.web2py.com/book/default/chapter/03'), (<lazyT 'The Core'>, False, 'http://www.web2py.com/book/default/chapter/04'), (<lazyT 'The Views'>, False, 'http://www.web2py.com/book/default/chapter/05'), (<lazyT 'Database'>, False, 'http://www.web2py.com/book/default/chapter/06'), (<lazyT 'Forms and Validators'>, False, 'http://www.web2py.com/book/default/chapter/07'), (<lazyT 'Access Control'>, False, 'http://www.web2py.com/book/default/chapter/08'), (<lazyT 'Services'>, False, 'http://www.web2py.com/book/default/chapter/09'), (<lazyT 'Ajax Recipes'>, False, 'http://www.web2py.com/book/default/chapter/10'), (<lazyT 'Deployment Recipes'>, False, 'http://www.web2py.com/book/default/chapter/11'), (<lazyT 'Other Recipes'>, False, 'http://www.web2py.com/book/default/chapter/12'), (<lazyT 'Buy this book'>, False, 'http://stores.lulu.com/web2py')]), (<lazyT 'Community'>, False, None, [(<lazyT 'Groups'>, False, 'http://www.web2py.com/examples/default/usergroups'), (<lazyT 'Twitter'>, False, 'http://twitter.com/web2py'), (<lazyT 'Live chat'>, False, 'http://mibbit.com/?channel=%23web2py&server=irc.mibbit.net'), (<lazyT 'User Voice'>, False, 'http://web2py.uservoice.com/')]), (<lazyT 'Web2py'>, False, 'http://www.web2py.com', [(<lazyT 'Download'>, False, 'http://www.web2py.com/examples/default/download'), (<lazyT 'Support'>, False, 'http://www.web2py.com/examples/default/support'), (<lazyT 'Quick Examples'>, False, 'http://web2py.com/examples/default/examples'), (<lazyT 'FAQ'>, False, 'http://web2py.com/AlterEgo'), (<lazyT 'Free Applications'>, False, 'http://web2py.com/appliances'), (<lazyT 'Plugins'>, False, 'http://web2py.com/plugins'), (<lazyT 'Recipes'>, False, 'http://web2pyslices.com/'), (<lazyT 'Demo'>, False, 'http://web2py.com/demo_admin'), (<lazyT 'Semantic'>, False, 'http://web2py.com/semantic'), (<lazyT 'Layouts'>, False, 'http://web2py.com/layouts'), (<lazyT 'Videos'>, False, 'http://www.web2py.com/examples/default/videos/')])])]"
p167
sS'_view_environment'
p168
S"{'A': <class 'gluon.html.A'>, 'Auth': <class 'gluon.tools.Auth'>, 'B': <class 'gluon.html.B'>, 'BEAUTIFY': <class 'gluon.html.BEAUTIFY'>, 'BODY': <class 'gluon.html.BODY'>, 'BR': <class 'gluon.html.BR'>, 'CENTER': <class 'gluon.html.CENTER'>, 'CLEANUP': <class 'gluon.validators.CLEANUP'>, 'CODE': <class 'gluon.html.CODE'>, 'CRYPT': <class 'gluon.validators.CRYPT'>, ...}"
p169
sS'subtitle'
p170
S"<lazyT 'customize me!'>"
p171
sS'session_id_name'
p172
S"'session_id_uc'"
p173
sS'_custom_commit'
p174
S'None'
p175
sS'_caller'
p176
S'<function <lambda> at 0x116f20f0>'
p177
sS'files'
p178
S'[<gluon.html.XML object at 0x117b1f10>, <gluon.html.XML object at 0x117b1650>, <gluon.html.XML object at 0x117b1fb0>, <gluon.html.XML object at 0xc5b1070>, <gluon.html.XML object at 0x117c41b0>, <gluon.html.XML object at 0x117c4850>]'
p179
sS'view'
p180
S"'default/index.html'"
p181
ssS'locals'
p182
(dp183
S'Service'
p184
S"<class 'gluon.tools.Service'>"
p185
sS'OBJECT'
p186
S"<class 'gluon.html.OBJECT'>"
p187
sS'_file'
p188
S'<gluon.html.XML object at 0x117c4850>'
p189
sS'SQLDB'
p190
S"<class 'gluon.dal.DAL'>"
p191
sg130
S"<Storage {'_formkey[project/None]': '27f62dca-c06a-489b-b06f-efc273a41b5e', 'auth': None}>"
p192
sS'LINK'
p193
S"<class 'gluon.html.LINK'>"
p194
sS'BR'
p195
S"<class 'gluon.html.BR'>"
p196
sS'local_import'
p197
S'<function <lambda> at 0x116c9070>'
p198
sS'OPTGROUP'
p199
S"<class 'gluon.html.OPTGROUP'>"
p200
sS'PRE'
p201
S"<class 'gluon.html.PRE'>"
p202
sS'IS_INT_IN_RANGE'
p203
S"<class 'gluon.validators.IS_INT_IN_RANGE'>"
p204
sS'left_sidebar_enabled'
p205
g73
sS'IS_LOWER'
p206
S"<class 'gluon.validators.IS_LOWER'>"
p207
sS'IS_STRONG'
p208
S"<class 'gluon.validators.IS_STRONG'>"
p209
sS'Recaptcha'
p210
S"<class 'gluon.tools.Recaptcha'>"
p211
sS'cache'
p212
S'<gluon.cache.Cache object at 0x116fad30>'
p213
sS'IS_IN_DB'
p214
S"<class 'gluon.validators.IS_IN_DB'>"
p215
sS'TAG'
p216
S'<gluon.html.__TAG__ object at 0xc4c2350>'
p217
sS'_k'
p218
S'5'
sS'SQLField'
p219
S"<class 'gluon.dal.Field'>"
p220
sS'mail'
p221
S'<gluon.tools.Mail object at 0xc5b1b90>'
p222
sS'BODY'
p223
S"<class 'gluon.html.BODY'>"
p224
sS'IS_DATE_IN_RANGE'
p225
S"<class 'gluon.validators.IS_DATE_IN_RANGE'>"
p226
sS'TH'
p227
S"<class 'gluon.html.TH'>"
p228
sS'URL'
p229
S'<function _URL at 0x116c91f0>'
p230
sS'db'
p231
S"<DAL {'auth_permission': <Table {'ALL': <gluon.d...x116db210>}>, '_migrate': True, '_pool_size': 0}>"
p232
sS'auth'
p233
S'<gluon.tools.Auth object at 0xc5b1490>'
p234
sS'P'
S"<class 'gluon.html.P'>"
p235
sS'TFOOT'
p236
S"<class 'gluon.html.TFOOT'>"
p237
sS'XHTML'
p238
S"<class 'gluon.html.XHTML'>"
p239
sS'projects'
p240
S'<gluon.dal.Rows object at 0xc5b15f0>'
p241
sS'ON'
p242
S'True'
p243
sS'OL'
p244
S"<class 'gluon.html.OL'>"
p245
sS'TEXTAREA'
p246
S"<class 'gluon.html.TEXTAREA'>"
p247
sS'MENU'
p248
S"<class 'gluon.html.MENU'>"
p249
sS'_file0'
p250
S"'/uc/static/js/superfish.js'"
p251
sS'p'
S"<Row {'name': 'Facturi', 'update_record': <funct...2448070>, 'description': 'Procesare de facturi'}>"
p252
sS'LOAD'
p253
S'<gluon.compileapp.LoadFactory object at 0x116fac70>'
p254
sS'CODE'
p255
S"<class 'gluon.html.CODE'>"
p256
sS'HTTP'
p257
S"<class 'gluon.http.HTTP'>"
p258
sS'HR'
p259
S"<class 'gluon.html.HR'>"
p260
sS'IS_DATETIME'
p261
S"<class 'gluon.validators.IS_DATETIME'>"
p262
sS'HEAD'
p263
S"<class 'gluon.html.HEAD'>"
p264
sS'LABEL'
p265
S"<class 'gluon.html.LABEL'>"
p266
sS'CLEANUP'
p267
S"<class 'gluon.validators.CLEANUP'>"
p268
sS'plugins'
p269
S'<gluon.tools.PluginManager object at 0xc5934f0>'
p270
sS'SELECT'
p271
S"<class 'gluon.html.SELECT'>"
p272
sS'CENTER'
p273
S"<class 'gluon.html.CENTER'>"
p274
sS'left_sidebar_style'
p275
S'\'style="display: none;"\''
p276
sS'Crud'
p277
S"<class 'gluon.tools.Crud'>"
p278
sS'Auth'
p279
S"<class 'gluon.tools.Auth'>"
p280
sS'__builtins__'
p281
S"{'ArithmeticError': <type 'exceptions.ArithmeticError'>, 'AssertionError': <type 'exceptions.AssertionError'>, 'AttributeError': <type 'exceptions.AttributeError'>, 'BaseException': <type 'exceptions.BaseException'>, 'DeprecationWarning': <type 'exceptions.DeprecationWarning'>, 'EOFError': <type 'exceptions.EOFError'>, 'Ellipsis': Ellipsis, 'EnvironmentError': <type 'exceptions.EnvironmentError'>, 'Exception': <type 'exceptions.Exception'>, 'False': False, ...}"
p282
sS'IS_LIST_OF'
p283
S"<class 'gluon.validators.IS_LIST_OF'>"
p284
sS'SQLFORM'
p285
S"<class 'gluon.sqlhtml.SQLFORM'>"
p286
sS'_item'
p287
S"'author'"
p288
sS'EM'
p289
S"<class 'gluon.html.EM'>"
p290
sS'redirect'
p291
S'<function redirect at 0xc4364b0>'
p292
sS'FIELDSET'
p293
S"<class 'gluon.html.FIELDSET'>"
p294
sS'IS_EQUAL_TO'
p295
S"<class 'gluon.validators.IS_EQUAL_TO'>"
p296
sS'embed64'
p297
S'<function embed64 at 0xc4bbd30>'
p298
sS'INPUT'
p299
S"<class 'gluon.html.INPUT'>"
p300
sS'EMBED'
p301
S"<class 'gluon.html.EMBED'>"
p302
sS'FORM'
p303
S"<class 'gluon.html.FORM'>"
p304
sS'width_content'
p305
S"'100%'"
p306
sS'H2'
p307
S"<class 'gluon.html.H2'>"
p308
sS'H3'
p309
S"<class 'gluon.html.H3'>"
p310
sS'H1'
p311
S"<class 'gluon.html.H1'>"
p312
sS'H6'
p313
S"<class 'gluon.html.H6'>"
p314
sS'H4'
p315
S"<class 'gluon.html.H4'>"
p316
sS'H5'
p317
S"<class 'gluon.html.H5'>"
p318
sS'UL'
p319
S"<class 'gluon.html.UL'>"
p320
sS'IS_UPPER'
p321
S"<class 'gluon.validators.IS_UPPER'>"
p322
sS'xmlescape'
p323
S'<function xmlescape at 0xc4bb570>'
p324
sS'IS_TIME'
p325
S"<class 'gluon.validators.IS_TIME'>"
p326
sS'OPTION'
p327
S"<class 'gluon.html.OPTION'>"
p328
sS'TITLE'
p329
S"<class 'gluon.html.TITLE'>"
p330
sS'CRYPT'
p331
S"<class 'gluon.validators.CRYPT'>"
p332
sS'IS_EMPTY_OR'
p333
S"<class 'gluon.validators.IS_EMPTY_OR'>"
p334
sS'MARKMIN'
p335
S"<class 'gluon.html.MARKMIN'>"
p336
sS'service'
p337
S'<gluon.tools.Service object at 0xc5b14d0>'
p338
sS'SCRIPT'
p339
S"<class 'gluon.html.SCRIPT'>"
p340
sS'geocode'
p341
S'<function geocode at 0xc57e5b0>'
p342
sS'TABLE'
p343
S"<class 'gluon.html.TABLE'>"
p344
sS'IS_IPV4'
p345
S"<class 'gluon.validators.IS_IPV4'>"
p346
sS'IS_LENGTH'
p347
S"<class 'gluon.validators.IS_LENGTH'>"
p348
sS'XML'
p349
S"<class 'gluon.html.XML'>"
p350
sS'B'
S"<class 'gluon.html.B'>"
p351
sS'form'
p352
S'<gluon.sqlhtml.SQLFORM object at 0xc5b17b0>'
p353
sS'SQLTABLE'
p354
S"<class 'gluon.sqlhtml.SQLTABLE'>"
p355
sS'IS_MATCH'
p356
S"<class 'gluon.validators.IS_MATCH'>"
p357
sS'IS_ALPHANUMERIC'
p358
S"<class 'gluon.validators.IS_ALPHANUMERIC'>"
p359
sS'SPAN'
p360
S"<class 'gluon.html.SPAN'>"
p361
sS'IS_SLUG'
p362
S"<class 'gluon.validators.IS_SLUG'>"
p363
sS'BEAUTIFY'
p364
S"<class 'gluon.html.BEAUTIFY'>"
p365
sS'META'
p366
S"<class 'gluon.html.META'>"
p367
sS'fetch'
p368
S'<function fetch at 0xc583470>'
p369
sS'IS_DATE'
p370
S"<class 'gluon.validators.IS_DATE'>"
p371
sS'IS_EMAIL'
p372
S"<class 'gluon.validators.IS_EMAIL'>"
p373
sS'IS_NOT_EMPTY'
p374
S"<class 'gluon.validators.IS_NOT_EMPTY'>"
p375
sg47
S"<Storage {'function': 'index', 'body': <cStringI... 16, 44, 27, 328510), 'post_vars': <Storage {}>}>"
p376
sS'TBODY'
p377
S"<class 'gluon.html.TBODY'>"
p378
sS'Field'
p379
S"<class 'gluon.dal.Field'>"
p380
sS'Mail'
p381
S"<class 'gluon.tools.Mail'>"
p382
sS'DIV'
p383
S"<class 'gluon.html.DIV'>"
p384
sS'LEGEND'
p385
S"<class 'gluon.html.LEGEND'>"
p386
sS'IMG'
p387
S"<class 'gluon.html.IMG'>"
p388
sS'DAL'
p389
S"<class 'gluon.dal.DAL'>"
p390
sS'TT'
p391
S"<class 'gluon.html.TT'>"
p392
sS'TR'
p393
S"<class 'gluon.html.TR'>"
p394
sS'LI'
p395
S"<class 'gluon.html.LI'>"
p396
sS'right_sidebar_enabled'
p397
g73
sS'IFRAME'
p398
S"<class 'gluon.html.IFRAME'>"
p399
sS'TD'
p400
S"<class 'gluon.html.TD'>"
p401
sS'PluginManager'
p402
S"<class 'gluon.tools.PluginManager'>"
p403
sS'IS_URL'
p404
S"<class 'gluon.validators.IS_URL'>"
p405
sS'A'
S"<class 'gluon.html.A'>"
p406
sS'STYLE'
p407
S"<class 'gluon.html.STYLE'>"
p408
sS'IS_DATETIME_IN_RANGE'
p409
S"<class 'gluon.validators.IS_DATETIME_IN_RANGE'>"
p410
sS'HTML'
p411
S"<class 'gluon.html.HTML'>"
p412
sS'IS_IMAGE'
p413
S"<class 'gluon.validators.IS_IMAGE'>"
p414
sS'I'
S"<class 'gluon.html.I'>"
p415
sS'crud'
p416
S'<gluon.tools.Crud object at 0xc5b1990>'
p417
sS'right_sidebar_style'
p418
S'\'style="display: none;"\''
p419
sS'IS_NOT_IN_DB'
p420
S"<class 'gluon.validators.IS_NOT_IN_DB'>"
p421
sg140
S"<Storage {'status': 200, 'body': <cStringIO.Stri...bject at 0x117c4850>], '_custom_rollback': None}>"
p422
sS'THEAD'
p423
S"<class 'gluon.html.THEAD'>"
p424
sS'IS_NULL_OR'
p425
S"<class 'gluon.validators.IS_EMPTY_OR'>"
p426
sS'prettydate'
p427
S'<function prettydate at 0xc57ec70>'
p428
sS'IS_FLOAT_IN_RANGE'
p429
S"<class 'gluon.validators.IS_FLOAT_IN_RANGE'>"
p430
sS'IS_EXPR'
p431
S"<class 'gluon.validators.IS_EXPR'>"
p432
sS'T'
S'<gluon.languages.translator object at 0x116fab50>'
p433
sS'IS_IN_SET'
p434
S"<class 'gluon.validators.IS_IN_SET'>"
p435
sS'IS_UPLOAD_FILENAME'
p436
S"<class 'gluon.validators.IS_UPLOAD_FILENAME'>"
p437
sS'style_content'
p438
S'\'style="width: 100%"\''
p439
sS'IS_DECIMAL_IN_RANGE'
p440
S"<class 'gluon.validators.IS_DECIMAL_IN_RANGE'>"
p441
sssS'traceback'
p442
S'Traceback (most recent call last):\n  File "gluon/restricted.py", line 188, in restricted\n  File "/Volumes/650Gb HD/web2py/web2py.app/Contents/Resources/applications/uc/views/default/index.html", line 103, in <module>\nNameError: name \'Url\' is not defined\n'
p443
s.